# symbols: 5508
0000000000086a30 P __cxa_allocate_dependent_exception
0000000000086a40 P _ZNKSt7__cxx1112basic_stringIwSt11char_traitsIwESaIwEE16find_last_not_ofEPKwmm
0000000000086a50 P _ZNSt8numpunctIcED2Ev
0000000000086a60 P __strtof_l
0000000000086a70 P _ZNKSt7num_putIcSt19ostreambuf_iteratorIcSt11char_traitsIcEEE13_M_insert_intIyEES3_S3_RSt8ios_basecT_
0000000000086a80 P _ZNSt12strstreambufD1Ev
0000000000086a90 P _ZNSt13__future_base11_State_baseD2Ev
0000000000086aa0 P _ZN10__cxxabiv119__pointer_type_infoD1Ev
0000000000086ab0 P _ZNSt15basic_streambufIwSt11char_traitsIwEE6xsgetnEPwl
0000000000086ac0 P _ZSt9has_facetISt7num_getIcSt19istreambuf_iteratorIcSt11char_traitsIcEEEEbRKSt6locale
0000000000086ad0 P _ZSt21__copy_streambufs_eofIwSt11char_traitsIwEElPSt15basic_streambufIT_T0_ES6_Rb
0000000000086ae0 P _ZNSt7__cxx1112basic_stringIcSt11char_traitsIcESaIcEE10_M_replaceEmmPKcm
0000000000086af0 P _ZNSt6locale5_Impl16_M_install_cacheEPKNS_5facetEm
0000000000086b00 P _ZNKSs13find_first_ofEPKcmm
0000000000086b10 P _ZSt9use_facetISt5ctypeIwEERKT_RKSt6locale
0000000000086b20 P fileno
0000000000086b30 P _ZNSt5ctypeIcED1Ev
0000000000086b40 P __cxa_vec_delete2
0000000000086b50 P _ZNSt12system_errorD2Ev
0000000000086b60 P _ZNSs4_Rep9_S_createEmmRKSaIcE
0000000000086b70 P pthread_cond_destroy
0000000000086b80 P _ZSt9use_facetISt5ctypeIcEERKT_RKSt6locale
0000000000086b90 P _ZNSt7__cxx118messagesIcEC1Em
0000000000086ba0 P _ZNSt6locale5facet17_S_clone_c_localeERP15__locale_struct
0000000000086bb0 P _ZNSt13basic_istreamIwSt11char_traitsIwEE10_M_extractIdEERS2_RT_
0000000000086bc0 P __strcoll_l
0000000000086bd0 P _ZNSt5ctypeIcED2Ev
0000000000086be0 P _ZNKSt7__cxx1112basic_stringIcSt11char_traitsIcESaIcEE17find_first_not_ofEcm
0000000000086bf0 P __nl_langinfo_l
0000000000086c00 P dgettext
0000000000086c10 P _ZNKSt7__cxx118time_getIcSt19istreambuf_iteratorIcSt11char_traitsIcEEE14_M_extract_numES4_S4_RiiimRSt8ios_baseRSt12_Ios_Iostate
0000000000086c20 P _ZSt10unexpectedv
0000000000086c30 P _ZNKSt9money_getIcSt19istreambuf_iteratorIcSt11char_traitsIcEEE10_M_extractILb0EEES3_S3_S3_RSt8ios_baseRSt12_Ios_IostateRSs
0000000000086c40 P _ZNSbIwSt11char_traitsIwESaIwEE6appendEPKwm
0000000000086c50 P _ZnwmRKSt9nothrow_t
0000000000086c60 P _ZStrsIcSt11char_traitsIcEERSt13basic_istreamIT_T0_ES6_RS3_
0000000000086c70 P _ZNSs15_M_replace_safeEmmPKcm
0000000000086c80 P _ZNSt6localeC1EPNS_5_ImplE
0000000000086c90 P _ZNSt9bad_allocD2Ev
0000000000086ca0 P _ZNSt5ctypeIcEC1EPKtbm
0000000000086cb0 P _ZNSt15basic_streambufIcSt11char_traitsIcEEC2ERKS2_
0000000000086cc0 P _ZNSt7__cxx1115basic_stringbufIcSt11char_traitsIcESaIcEED1Ev
0000000000086cd0 P __cxa_free_exception
0000000000086ce0 P _Unwind_GetRegionStart
0000000000086cf0 P _ZNSt8ios_baseD1Ev
0000000000086d00 P _ZNSt7codecvtIcc11__mbstate_tED2Ev
0000000000086d10 P fseeko64
0000000000086d20 P _ZNSt13basic_ostreamIwSt11char_traitsIwEE9_M_insertIxEERS2_T_
0000000000086d30 P wmemcpy
0000000000086d40 P _ZNSt8ios_base20_M_dispose_callbacksEv
0000000000086d50 P memset
0000000000086d60 P mbrtowc
0000000000086d70 P _ZNSt12strstreambufC1EPKcl
0000000000086d80 P _ZSt9use_facetISt8numpunctIwEERKT_RKSt6locale
0000000000086d90 P _ZNSt11logic_errorC2EPKc
0000000000086da0 P _ZNKSs17find_first_not_ofEcm
0000000000086db0 P _ZNKSt7__cxx118time_getIwSt19istreambuf_iteratorIwSt11char_traitsIwEEE14_M_extract_numES4_S4_RiiimRSt8ios_baseRSt12_Ios_Iostate
0000000000086dc0 P __cxa_begin_catch
0000000000086dd0 P _Unwind_SetGR
0000000000086de0 P _ZNSt7__cxx1115basic_stringbufIwSt11char_traitsIwESaIwEED1Ev
0000000000086df0 P _ZSt7getlineIcSt11char_traitsIcESaIcEERSt13basic_istreamIT_T0_ES7_RNSt7__cxx1112basic_stringIS4_S5_T1_EES4_
0000000000086e00 P _ZNSt13runtime_errorC2ERKSs
0000000000086e10 P _ZNSt10moneypunctIwLb1EED1Ev
0000000000086e20 P _ZNSbIwSt11char_traitsIwESaIwEE6resizeEmw
0000000000086e30 P _ZNKSt7__cxx1112basic_stringIcSt11char_traitsIcESaIcEE5rfindEPKcmm
0000000000086e40 P wcslen
0000000000086e50 P _ZNSs4_Rep10_M_destroyERKSaIcE
0000000000086e60 P _ZN10__cxxabiv123__fundamental_type_infoD1Ev
0000000000086e70 P _ZNSt5ctypeIwEC1EP15__locale_structm
0000000000086e80 P _ZNSt10moneypunctIcLb0EE24_M_initialize_moneypunctEP15__locale_structPKc
0000000000086e90 P _ZNKSt11__timepunctIwE9_M_monthsEPPKw
0000000000086ea0 P __duplocale
0000000000086eb0 P _Unwind_GetDataRelBase
0000000000086ec0 P _ZNSt13basic_istreamIwSt11char_traitsIwEE3getEPwlw
0000000000086ed0 P _ZNSt7codecvtIDic11__mbstate_tED1Ev
0000000000086ee0 P _ZNKSt7num_putIwSt19ostreambuf_iteratorIwSt11char_traitsIwEEE13_M_insert_intIyEES3_S3_RSt8ios_basewT_
0000000000086ef0 P _ZNSt10moneypunctIcLb1EED2Ev
0000000000086f00 P _ZNKSt7__cxx1112basic_stringIcSt11char_traitsIcESaIcEE4findEPKcmm
0000000000086f10 P _ZSt9use_facetISt7num_putIcSt19ostreambuf_iteratorIcSt11char_traitsIcEEEERKT_RKSt6locale
0000000000086f20 P _ZNKSt7__cxx117collateIwE10_M_compareEPKwS3_
0000000000086f30 P _ZNKSt9money_putIwSt19ostreambuf_iteratorIwSt11char_traitsIwEEE9_M_insertILb0EEES3_S3_RSt8ios_basewRKSbIwS2_SaIwEE
0000000000086f40 P _ZNSbIwSt11char_traitsIwESaIwEE6appendERKS2_
0000000000086f50 P _ZNKSt8time_getIwSt19istreambuf_iteratorIwSt11char_traitsIwEEE21_M_extract_via_formatES3_S3_RSt8ios_baseRSt12_Ios_IostateP2tmPKw
0000000000086f60 P ceil
0000000000086f70 P _ZNKSt11logic_error4whatEv
0000000000086f80 P _ZSt24__throw_out_of_range_fmtPKcz
0000000000086f90 P ioctl
0000000000086fa0 P _ZNSt13basic_filebufIcSt11char_traitsIcEED2Ev
0000000000086fb0 P _ZNSt12length_errorC1EPKc
0000000000086fc0 P abort
0000000000086fd0 P _ZNSt5ctypeIwEC1Em
0000000000086fe0 P _ZNSt6localeC1ERKS_
0000000000086ff0 P _ZNSt7codecvtIDsc11__mbstate_tED1Ev
0000000000087000 P _ZNSt3_V214error_categoryD1Ev
0000000000087010 P memchr
0000000000087020 P _ZNSt13runtime_errorC2ERKNSt7__cxx1112basic_stringIcSt11char_traitsIcESaIcEEE
0000000000087030 P _ZNSt7codecvtIwc11__mbstate_tEC2Em
0000000000087040 P _ZNKSt7__cxx1112basic_stringIwSt11char_traitsIwESaIwEE4findEPKwmm
0000000000087050 P _ZNSsC1EPKcmRKSaIcE
0000000000087060 P _ZNKSt9money_getIwSt19istreambuf_iteratorIwSt11char_traitsIwEEE10_M_extractILb0EEES3_S3_S3_RSt8ios_baseRSt12_Ios_IostateRSs
0000000000087070 P _ZNSs7reserveEm
0000000000087080 P clock_gettime
0000000000087090 P _ZNKSt9money_putIcSt19ostreambuf_iteratorIcSt11char_traitsIcEEE9_M_insertILb0EEES3_S3_RSt8ios_basecRKSs
00000000000870a0 P _ZNSt7__cxx118numpunctIcED2Ev
00000000000870b0 P _ZNSt7__cxx118numpunctIwE22_M_initialize_numpunctEP15__locale_struct
00000000000870c0 P _ZNSt7__cxx1112basic_stringIwSt11char_traitsIwESaIwEE4swapERS4_
00000000000870d0 P _ZNSt7__cxx118messagesIwEC1Em
00000000000870e0 P _Znwm
00000000000870f0 P _ZNSt8ios_base7failureD1Ev
0000000000087100 P _ZNSt15basic_streambufIwSt11char_traitsIwEEC2ERKS2_
0000000000087110 P _ZNKSt11__timepunctIwE6_M_putEPwmPKwPK2tm
0000000000087120 P _ZNKSs4findEPKcmm
0000000000087130 P _ZNSt12__basic_fileIcE9showmanycEv
0000000000087140 P _ZNSt7__cxx1112basic_stringIcSt11char_traitsIcESaIcEE12_M_constructIN9__gnu_cxx17__normal_iteratorIPKcS4_EEEEvT_SB_St20forward_iterator_tag
0000000000087150 P _ZNSt13basic_filebufIcSt11char_traitsIcEEC2Ev
0000000000087160 P _ZNSt10moneypunctIwLb0EED2Ev
0000000000087170 P _ZNSi10_M_extractIyEERSiRT_
0000000000087180 P _ZNSt13basic_filebufIcSt11char_traitsIcEEC1EOS2_
0000000000087190 P _ZNSt7__cxx1112basic_stringIwSt11char_traitsIwESaIwEE10_M_replaceEmmPKwm
00000000000871a0 P _ZNSt13basic_filebufIcSt11char_traitsIcEE27_M_allocate_internal_bufferEv
00000000000871b0 P pthread_cond_signal
00000000000871c0 P _ZNSs14_M_replace_auxEmmmc
00000000000871d0 P _ZNKSt7__cxx1112basic_stringIwSt11char_traitsIwESaIwEE4copyEPwmm
00000000000871e0 P _ZStrsIcSt11char_traitsIcEERSt13basic_istreamIT_T0_ES6_PS3_
00000000000871f0 P _ZSt14__convert_to_vIeEvPKcRT_RSt12_Ios_IostateRKP15__locale_struct
0000000000087200 P _ZNSbIwSt11char_traitsIwESaIwEE4_Rep9_S_createEmmRKS1_
0000000000087210 P _ZNSi10_M_extractIjEERSiRT_
0000000000087220 P _ZNSt13__future_base11_State_baseD1Ev
0000000000087230 P _ZNKSt7__cxx1112basic_stringIcSt11char_traitsIcESaIcEE4copyEPcmm
0000000000087240 P _ZNSt6locale5_Impl19_M_replace_categoryEPKS0_PKPKNS_2idE
0000000000087250 P _ZNSo9_M_insertIeEERSoT_
0000000000087260 P _ZSt15system_categoryv
0000000000087270 P _ZNSs12_S_constructEmcRKSaIcE
0000000000087280 P __assert_fail
0000000000087290 P _ZNSt7__cxx1115basic_stringbufIwSt11char_traitsIwESaIwEE8_M_pbumpEPwS5_l
00000000000872a0 P _ZSt9has_facetISt7num_putIwSt19ostreambuf_iteratorIwSt11char_traitsIwEEEEbRKSt6locale
00000000000872b0 P _ZNSt13basic_filebufIwSt11char_traitsIwEE7_M_seekElSt12_Ios_Seekdir11__mbstate_t
00000000000872c0 P _ZNSt16__numpunct_cacheIwE8_M_cacheERKSt6locale
00000000000872d0 P bindtextdomain
00000000000872e0 P wmemcmp
00000000000872f0 P _ZNKSt7__cxx1112basic_stringIcSt11char_traitsIcESaIcEE7compareEPKc
0000000000087300 P __strftime_l
0000000000087310 P gettimeofday
0000000000087320 P _ZNSt7codecvtIcc11__mbstate_tEC2Em
0000000000087330 P setvbuf
0000000000087340 P _ZNKSs16find_last_not_ofEPKcmm
0000000000087350 P _ZNSt7__cxx1112basic_stringIwSt11char_traitsIwESaIwEE8_M_eraseEmm
0000000000087360 P _ZSt7getlineIcSt11char_traitsIcESaIcEERSt13basic_istreamIT_T0_ES7_RSbIS4_S5_T1_ES4_
0000000000087370 P _ZN10__cxxabiv117__array_type_infoD1Ev
0000000000087380 P __strxfrm_l
0000000000087390 P _ZNSt7__cxx1110moneypunctIwLb1EE24_M_initialize_moneypunctEP15__locale_structPKc
00000000000873a0 P _ZNSt15messages_bynameIcEC1EPKcm
00000000000873b0 P _ZNSt18__moneypunct_cacheIcLb1EED1Ev
00000000000873c0 P _ZNSt6locale5_ImplD1Ev
00000000000873d0 P _ZNKSt7num_getIwSt19istreambuf_iteratorIwSt11char_traitsIwEEE14_M_extract_intIyEES3_S3_S3_RSt8ios_baseRSt12_Ios_IostateRT_
00000000000873e0 P _ZNSt13basic_istreamIwSt11char_traitsIwEE3getERSt15basic_streambufIwS1_Ew
00000000000873f0 P _ZNKSt8time_getIcSt19istreambuf_iteratorIcSt11char_traitsIcEEE21_M_extract_via_formatES3_S3_RSt8ios_baseRSt12_Ios_IostateP2tmPKc
0000000000087400 P _ZNSs12_M_leak_hardEv
0000000000087410 P _ZNSt12__basic_fileIcE2fdEv
0000000000087420 P _ZNSt5ctypeIwEC2Em
0000000000087430 P _ZNSo3putEc
0000000000087440 P _ZNSbIwSt11char_traitsIwESaIwEEC1EPKwRKS1_
0000000000087450 P _ZNSt13runtime_errorD2Ev
0000000000087460 P pthread_key_create
0000000000087470 P _ZN10__cxxabiv117__pbase_type_infoD2Ev
0000000000087480 P _ZNSt17__timepunct_cacheIcED1Ev
0000000000087490 P _ZNSt3_V214error_categoryD2Ev
00000000000874a0 P _ZNSt18condition_variableD1Ev
00000000000874b0 P __cxa_vec_new2
00000000000874c0 P _ZNSt13basic_istreamIwSt11char_traitsIwEE10_M_extractIPvEERS2_RT_
00000000000874d0 P mbsnrtowcs
00000000000874e0 P _ZNSt13basic_filebufIcSt11char_traitsIcEE14_M_get_ext_posER11__mbstate_t
00000000000874f0 P _ZNSs12_S_constructIPcEES0_T_S1_RKSaIcESt20forward_iterator_tag
0000000000087500 P read
0000000000087510 P _ZNSt13basic_ostreamIwSt11char_traitsIwEE9_M_insertIbEERS2_T_
0000000000087520 P malloc
0000000000087530 P fopen
0000000000087540 P _ZNSs6assignEPKcm
0000000000087550 P _ZNSt12__basic_fileIcE4openEPKcSt13_Ios_Openmodei
0000000000087560 P _ZNKSt9money_getIwSt19istreambuf_iteratorIwSt11char_traitsIwEEE10_M_extractILb1EEES3_S3_S3_RSt8ios_baseRSt12_Ios_IostateRSs
0000000000087570 P _ZSt15get_new_handlerv
0000000000087580 P _ZNSt13basic_filebufIwSt11char_traitsIwEE4openEPKcSt13_Ios_Openmode
0000000000087590 P _ZNSo6sentryD1Ev
00000000000875a0 P _ZNKSt7__cxx119money_putIcSt19ostreambuf_iteratorIcSt11char_traitsIcEEE9_M_insertILb1EEES4_S4_RSt8ios_basecRKNS_12basic_stringIcS3_SaIcEEE
00000000000875b0 P _ZNSt12ctype_bynameIcED1Ev
00000000000875c0 P _ZNKSt7__cxx119money_getIcSt19istreambuf_iteratorIcSt11char_traitsIcEEE10_M_extractILb1EEES4_S4_S4_RSt8ios_baseRSt12_Ios_IostateRNS_12basic_stringIcS3_SaIcEEE
00000000000875d0 P _ZSt20__throw_length_errorPKc
00000000000875e0 P _ZNSbIwSt11char_traitsIwESaIwEE7replaceEmmPKwm
00000000000875f0 P _ZNSt8ios_baseC2Ev
0000000000087600 P _ZNKSt9money_putIcSt19ostreambuf_iteratorIcSt11char_traitsIcEEE9_M_insertILb1EEES3_S3_RSt8ios_basecRKSs
0000000000087610 P _ZNSt8numpunctIwED1Ev
0000000000087620 P __cxa_guard_release
0000000000087630 P gettext
0000000000087640 P _ZNKSbIwSt11char_traitsIwESaIwEE5rfindEwm
0000000000087650 P _ZNSbIwSt11char_traitsIwESaIwEE12_S_constructIPKwEEPwT_S7_RKS1_St20forward_iterator_tag
0000000000087660 P _ZSt9has_facetISt5ctypeIwEEbRKSt6locale
0000000000087670 P _ZNKSt7num_getIcSt19istreambuf_iteratorIcSt11char_traitsIcEEE14_M_extract_intItEES3_S3_S3_RSt8ios_baseRSt12_Ios_IostateRT_
0000000000087680 P _ZNSt13basic_istreamIwSt11char_traitsIwEE6sentryC1ERS2_b
0000000000087690 P _ZNKSt7num_getIcSt19istreambuf_iteratorIcSt11char_traitsIcEEE14_M_extract_intImEES3_S3_S3_RSt8ios_baseRSt12_Ios_IostateRT_
00000000000876a0 P _ZNSt7__cxx1112basic_stringIcSt11char_traitsIcESaIcEE12_M_constructIPcEEvT_S7_St20forward_iterator_tag
00000000000876b0 P _ZNSt6locale5facet13_S_get_c_nameEv
00000000000876c0 P _ZNSi10_M_extractIfEERSiRT_
00000000000876d0 P _ZNSt6locale5_ImplC1Em
00000000000876e0 P _ZdlPv
00000000000876f0 P _ZNSt16invalid_argumentC1EPKc
0000000000087700 P _ZSt9use_facetISt11__timepunctIcEERKT_RKSt6locale
0000000000087710 P strtold_l
0000000000087720 P _ZNSt10money_base20_S_construct_patternEccc
0000000000087730 P _ZNSt9type_infoD2Ev
0000000000087740 P _ZNSt19istreambuf_iteratorIcSt11char_traitsIcEEppEv
0000000000087750 P _ZNSt5ctypeIcEC2EPKtbm
0000000000087760 P _ZNSo9_M_insertIlEERSoT_
0000000000087770 P __cxa_vec_cleanup
0000000000087780 P _ZNSt7__cxx1115messages_bynameIwEC1EPKcm
0000000000087790 P _ZNSbIwSt11char_traitsIwESaIwEE6appendEmw
00000000000877a0 P _ZNSt6locale5facet18_S_create_c_localeERP15__locale_structPKcS2_
00000000000877b0 P ungetwc
00000000000877c0 P _ZNSt12strstreambufC1EPclS0_
00000000000877d0 P _Unwind_DeleteException
00000000000877e0 P _ZSt15future_categoryv
00000000000877f0 P _ZNSt11regex_errorC1ENSt15regex_constants10error_typeE
0000000000087800 P __wctype_l
0000000000087810 P _ZN10__cxxabiv117__pbase_type_infoD1Ev
0000000000087820 P _ZNSt7codecvtIwc11__mbstate_tEC1Em
0000000000087830 P __memcpy_chk
0000000000087840 P _ZNSt7__cxx1110moneypunctIwLb1EED1Ev
0000000000087850 P _ZNSbIwSt11char_traitsIwESaIwEE7reserveEm
0000000000087860 P _ZNKSt8time_getIcSt19istreambuf_iteratorIcSt11char_traitsIcEEE14_M_extract_numES3_S3_RiiimRSt8ios_baseRSt12_Ios_Iostate
0000000000087870 P _ZNSt12ctype_bynameIcEC1EPKcm
0000000000087880 P _ZNKSt8__detail20_Prime_rehash_policy11_M_next_bktEm
0000000000087890 P __cxa_atexit
00000000000878a0 P _ZNKSt13runtime_error4whatEv
00000000000878b0 P __cxa_current_exception_type
00000000000878c0 P _ZNKSbIwSt11char_traitsIwESaIwEE12find_last_ofEPKwmm
00000000000878d0 P _ZNSs12_S_constructIN9__gnu_cxx17__normal_iteratorIPcSsEEEES2_T_S4_RKSaIcESt20forward_iterator_tag
00000000000878e0 P _ZNKSt8time_getIwSt19istreambuf_iteratorIwSt11char_traitsIwEEE24_M_extract_wday_or_monthES3_S3_RiPPKwmRSt8ios_baseRSt12_Ios_Iostate
00000000000878f0 P _ZSt16__throw_bad_castv
0000000000087900 P _ZNSt13basic_filebufIwSt11char_traitsIwEEaSEOS2_
0000000000087910 P _ZNSbIwSt11char_traitsIwESaIwEE6assignERKS2_
0000000000087920 P _ZNSt7__cxx118messagesIcED2Ev
0000000000087930 P _ZNSt16__numpunct_cacheIwED1Ev
0000000000087940 P _ZNSs9_M_mutateEmmm
0000000000087950 P _ZNSt19__codecvt_utf8_baseIDsED1Ev
0000000000087960 P _ZNSt13basic_filebufIwSt11char_traitsIwEE5closeEv
0000000000087970 P _ZNKSt7__cxx1112basic_stringIcSt11char_traitsIcESaIcEE17find_first_not_ofEPKcmm
0000000000087980 P _ZNSt8numpunctIcE22_M_initialize_numpunctEP15__locale_struct
0000000000087990 P _ZSt9use_facetISt8numpunctIcEERKT_RKSt6locale
00000000000879a0 P _ZNSsC1EPKcRKSaIcE
00000000000879b0 P _ZNK11__gnu_debug16_Error_formatter13_M_print_wordEPKc
00000000000879c0 P _ZNSt15basic_streambufIwSt11char_traitsIwEE6xsputnEPKwl
00000000000879d0 P _ZNSt7__cxx1112basic_stringIwSt11char_traitsIwESaIwEE12_M_constructEmw
00000000000879e0 P _ZNSt13basic_istreamIwSt11char_traitsIwEE10_M_extractIxEERS2_RT_
00000000000879f0 P _ZNSt15basic_stringbufIcSt11char_traitsIcESaIcEED1Ev
0000000000087a00 P _ZNKSt6locale2id5_M_idEv
0000000000087a10 P _ZNSt12__basic_fileIcED1Ev
0000000000087a20 P _ZN10__cxxabiv120__function_type_infoD1Ev
0000000000087a30 P _ZNSt13basic_ostreamIwSt11char_traitsIwEE9_M_insertIdEERS2_T_
0000000000087a40 P __towupper_l
0000000000087a50 P _ZNKSt7__cxx1112basic_stringIcSt11char_traitsIcESaIcEE12find_last_ofEPKcmm
0000000000087a60 P _ZNSt18__moneypunct_cacheIwLb0EED1Ev
0000000000087a70 P __cxa_call_unexpected
0000000000087a80 P _ZNSt15basic_streambufIcSt11char_traitsIcEEaSERKS2_
0000000000087a90 P __wcsxfrm_l
0000000000087aa0 P _ZNSt6localeC1Ev
0000000000087ab0 P _ZNSt8messagesIwEC1EP15__locale_structPKcm
0000000000087ac0 P _ZNSt13basic_filebufIwSt11char_traitsIwEED2Ev
0000000000087ad0 P _ZNSt18__moneypunct_cacheIwLb0EE8_M_cacheERKSt6locale
0000000000087ae0 P pthread_once
0000000000087af0 P _ZNKSt7__cxx118time_getIwSt19istreambuf_iteratorIwSt11char_traitsIwEEE15_M_extract_nameES4_S4_RiPPKwmRSt8ios_baseRSt12_Ios_Iostate
0000000000087b00 P _ZNKSt7num_putIwSt19ostreambuf_iteratorIwSt11char_traitsIwEEE6_M_padEwlRSt8ios_basePwPKwRi
0000000000087b10 P __fxstat64
0000000000087b20 P _ZNSbIwSt11char_traitsIwESaIwEEC1ERKS2_
0000000000087b30 P _ZNSt18__moneypunct_cacheIcLb0EED1Ev
0000000000087b40 P _ZNSi10_M_extractIlEERSiRT_
0000000000087b50 P _ZNSs6appendEmc
0000000000087b60 P _ZSt18uncaught_exceptionv
0000000000087b70 P _ZNSi10_M_extractIdEERSiRT_
0000000000087b80 P _ZNSt18__moneypunct_cacheIcLb0EE8_M_cacheERKSt6locale
0000000000087b90 P _ZNSt7__cxx1112basic_stringIwSt11char_traitsIwESaIwEE9_M_createERmm
0000000000087ba0 P _ZNSi3getEPclc
0000000000087bb0 P _ZNSt7codecvtIcc11__mbstate_tEC1Em
0000000000087bc0 P _ZSt9use_facetISt7num_getIcSt19istreambuf_iteratorIcSt11char_traitsIcEEEERKT_RKSt6locale
0000000000087bd0 P __cxa_bad_cast
0000000000087be0 P _ZNSt13basic_filebufIcSt11char_traitsIcEEaSEOS2_
0000000000087bf0 P _ZNSt11logic_errorC2ERKSs
0000000000087c00 P _ZNKSbIwSt11char_traitsIwESaIwEE5rfindEPKwmm
0000000000087c10 P _ZNSbIwSt11char_traitsIwESaIwEEC1EmwRKS1_
0000000000087c20 P _ZNSbIwSt11char_traitsIwESaIwEE9push_backEw
0000000000087c30 P _ZNKSt7__cxx1112basic_stringIwSt11char_traitsIwESaIwEE17find_first_not_ofEPKwmm
0000000000087c40 P _ZNSt5ctypeIwE19_M_initialize_ctypeEv
0000000000087c50 P __cxa_get_globals_fast
0000000000087c60 P _ZNSt12strstreambuf8_M_allocEm
0000000000087c70 P _Unwind_GetLanguageSpecificData
0000000000087c80 P _ZNSt6locale5facet19_S_destroy_c_localeERP15__locale_struct
0000000000087c90 P _ZNSt10moneypunctIcLb1EED1Ev
0000000000087ca0 P _ZNSt6locale5_Impl21_M_replace_categoriesEPKS0_i
0000000000087cb0 P _ZNKSt7__cxx118time_getIcSt19istreambuf_iteratorIcSt11char_traitsIcEEE15_M_extract_nameES4_S4_RiPPKcmRSt8ios_baseRSt12_Ios_Iostate
0000000000087cc0 P _Unwind_Resume_or_Rethrow
0000000000087cd0 P ungetc
0000000000087ce0 P _ZSt9use_facetISt10moneypunctIwLb0EEERKT_RKSt6locale
0000000000087cf0 P _ZNK10__cxxabiv117__class_type_info11__do_upcastEPKS0_PKvRNS0_15__upcast_resultE
0000000000087d00 P __wcscoll_l
0000000000087d10 P _ZNSt15basic_stringbufIcSt11char_traitsIcESaIcEE7_M_syncEPcmm
0000000000087d20 P _ZNSt12__basic_fileIcE6xsputnEPKcl
0000000000087d30 P _ZNKSbIwSt11char_traitsIwESaIwEE4copyEPwmm
0000000000087d40 P fputc
0000000000087d50 P _ZNK11__gnu_debug16_Error_formatter10_Parameter20_M_print_descriptionEPKS0_
0000000000087d60 P _ZNKSt7__cxx119money_putIcSt19ostreambuf_iteratorIcSt11char_traitsIcEEE9_M_insertILb0EEES4_S4_RSt8ios_basecRKNS_12basic_stringIcS3_SaIcEEE
0000000000087d70 P _ZNSt13basic_filebufIcSt11char_traitsIcEE19_M_terminate_outputEv
0000000000087d80 P _ZNKSt7num_putIcSt19ostreambuf_iteratorIcSt11char_traitsIcEEE12_M_group_intEPKcmcRSt8ios_basePcS9_Ri
0000000000087d90 P _ZNSt14overflow_errorC1EPKc
0000000000087da0 P _ZNSt12__basic_fileIcE8sys_openEP8_IO_FILESt13_Ios_Openmode
0000000000087db0 P free
0000000000087dc0 P _ZNSt18__moneypunct_cacheIwLb1EE8_M_cacheERKSt6locale
0000000000087dd0 P _ZNSt18condition_variable10notify_allEv
0000000000087de0 P _ZNKSt7num_getIwSt19istreambuf_iteratorIwSt11char_traitsIwEEE14_M_extract_intIlEES3_S3_S3_RSt8ios_baseRSt12_Ios_IostateRT_
0000000000087df0 P _ZNSt25__codecvt_utf8_utf16_baseIwED1Ev
0000000000087e00 P _ZNSt7codecvtIwc11__mbstate_tEC1EP15__locale_structm
0000000000087e10 P strlen
0000000000087e20 P _ZNKSt7__cxx117collateIwE12_M_transformEPwPKwm
0000000000087e30 P __cxa_allocate_exception
0000000000087e40 P _ZSt7getlineIwSt11char_traitsIwESaIwEERSt13basic_istreamIT_T0_ES7_RNSt7__cxx1112basic_stringIS4_S5_T1_EES4_
0000000000087e50 P _ZNSt10moneypunctIcLb0EED1Ev
0000000000087e60 P _ZSt9has_facetISt7codecvtIcc11__mbstate_tEEbRKSt6locale
0000000000087e70 P _ZN10__cxxabiv121__vmi_class_type_infoD1Ev
0000000000087e80 P _ZSt21__copy_streambufs_eofIcSt11char_traitsIcEElPSt15basic_streambufIT_T0_ES6_Rb
0000000000087e90 P _ZNKSt8time_getIcSt19istreambuf_iteratorIcSt11char_traitsIcEEE15_M_extract_nameES3_S3_RiPPKcmRSt8ios_baseRSt12_Ios_Iostate
0000000000087ea0 P _ZNSt7__cxx1112basic_stringIwSt11char_traitsIwESaIwEE9_M_mutateEmmPKwm
0000000000087eb0 P _ZNSbIwSt11char_traitsIwESaIwEE4swapERS2_
0000000000087ec0 P _ZNKSt7num_putIcSt19ostreambuf_iteratorIcSt11char_traitsIcEEE15_M_insert_floatIeEES3_S3_RSt8ios_baseccT_
0000000000087ed0 P __cxa_vec_dtor
0000000000087ee0 P __cxa_thread_atexit_impl
0000000000087ef0 P _ZNSt7__cxx118messagesIwEC2Em
0000000000087f00 P wmemchr
0000000000087f10 P _ZSt17__verify_groupingPKcmRKNSt7__cxx1112basic_stringIcSt11char_traitsIcESaIcEEE
0000000000087f20 P _ZNSt7__cxx1110moneypunctIcLb0EE24_M_initialize_moneypunctEP15__locale_structPKc
0000000000087f30 P _ZSt9use_facetISt10moneypunctIcLb0EEERKT_RKSt6locale
0000000000087f40 P _ZNSt15__exception_ptr13exception_ptrC1Ev
0000000000087f50 P _ZNSt13basic_filebufIcSt11char_traitsIcEE26_M_destroy_internal_bufferEv
0000000000087f60 P _Unwind_RaiseException
0000000000087f70 P _ZNSt15underflow_errorC1EPKc
0000000000087f80 P __ctype_get_mb_cur_max
0000000000087f90 P _ZNSt25__codecvt_utf8_utf16_baseIDsED1Ev
0000000000087fa0 P _ZNSt11range_errorC1EPKc
0000000000087fb0 P atomic_flag_test_and_set_explicit
0000000000087fc0 P _ZNKSt5ctypeIwE19_M_convert_to_wmaskEt
0000000000087fd0 P pthread_getspecific
0000000000087fe0 P _ZNSt7__cxx118messagesIcEC1EP15__locale_structPKcm
0000000000087ff0 P _ZNSi10_M_extractImEERSiRT_
0000000000088000 P _ZNSt7__cxx1110moneypunctIwLb1EED2Ev
0000000000088010 P _ZNSbIwSt11char_traitsIwESaIwEE6assignEPKwm
0000000000088020 P _ZNSt13basic_istreamIwSt11char_traitsIwEE10_M_extractIyEERS2_RT_
0000000000088030 P _ZNSt7__cxx1110moneypunctIwLb0EED2Ev
0000000000088040 P _ZNSt7__cxx1115basic_stringbufIcSt11char_traitsIcESaIcEE8_M_pbumpEPcS5_l
0000000000088050 P _ZNKSt11__timepunctIcE21_M_months_abbreviatedEPPKc
0000000000088060 P _ZNKSt5ctypeIcE13_M_widen_initEv
0000000000088070 P _ZNSt12__basic_fileIcE6xsgetnEPcl
0000000000088080 P wctob
0000000000088090 P _ZN10__cxxabiv116__enum_type_infoD1Ev
00000000000880a0 P __wcsftime_l
00000000000880b0 P _ZNKSt7collateIwE10_M_compareEPKwS2_
00000000000880c0 P __iswctype_l
00000000000880d0 P _ZNSt8numpunctIwE22_M_initialize_numpunctEP15__locale_struct
00000000000880e0 P _ZNSt14error_categoryC2Ev
00000000000880f0 P _ZNSt6locale5_Impl16_M_install_facetEPKNS_2idEPKNS_5facetE
0000000000088100 P _ZNSsC1ERKSsmm
0000000000088110 P _ZNKSt7__cxx1112basic_stringIwSt11char_traitsIwESaIwEE5rfindEPKwmm
0000000000088120 P __tls_get_addr
0000000000088130 P _ZNSs7replaceEmmPKcm
0000000000088140 P _ZNSt6locale5facetD1Ev
0000000000088150 P _ZNSt7__cxx1115basic_stringbufIcSt11char_traitsIcESaIcEE14__xfer_bufptrsD1Ev
0000000000088160 P _ZNSt19__codecvt_utf8_baseIDiED1Ev
0000000000088170 P _ZNSt6localeC1EPKc
0000000000088180 P _ZNSt10__num_base15_S_format_floatERKSt8ios_basePcc
0000000000088190 P _ZNKSt11__timepunctIcE9_M_monthsEPPKc
00000000000881a0 P _ZNKSt7collateIcE10_M_compareEPKcS2_
00000000000881b0 P _ZNSt7__cxx1112basic_stringIwSt11char_traitsIwESaIwEE9_M_appendEPKwm
00000000000881c0 P _ZNSt13basic_ostreamIwSt11char_traitsIwEE9_M_insertIyEERS2_T_
00000000000881d0 P _ZNSt15basic_streambufIcSt11char_traitsIcEE6xsgetnEPcl
00000000000881e0 P _ZSt19__throw_ios_failurePKc
00000000000881f0 P _ZNSt11__timepunctIwED1Ev
0000000000088200 P _ZNKSt7num_getIcSt19istreambuf_iteratorIcSt11char_traitsIcEEE14_M_extract_intIlEES3_S3_S3_RSt8ios_baseRSt12_Ios_IostateRT_
0000000000088210 P _ZNK11__gnu_debug16_Error_formatter15_M_print_stringEPKc
0000000000088220 P _ZNKSs7compareEPKc
0000000000088230 P fdopen
0000000000088240 P _ZNSt12domain_errorC1EPKc
0000000000088250 P _ZSt14__convert_to_vIfEvPKcRT_RSt12_Ios_IostateRKP15__locale_struct
0000000000088260 P _ZNSt13basic_istreamIwSt11char_traitsIwEE10_M_extractIlEERS2_RT_
0000000000088270 P syscall
0000000000088280 P _ZNKSt7num_putIwSt19ostreambuf_iteratorIwSt11char_traitsIwEEE15_M_insert_floatIdEES3_S3_RSt8ios_basewcT_
0000000000088290 P _ZNSt5ctypeIwED1Ev
00000000000882a0 P _ZSt7getlineIwSt11char_traitsIwESaIwEERSt13basic_istreamIT_T0_ES7_RSbIS4_S5_T1_ES4_
00000000000882b0 P _ZNSt11__timepunctIwE23_M_initialize_timepunctEP15__locale_struct
00000000000882c0 P _ZNKSs5rfindEcm
00000000000882d0 P _ZNSt14error_categoryD2Ev
00000000000882e0 P _ZNSt13basic_ostreamIwSt11char_traitsIwEE6sentryC1ERS2_
00000000000882f0 P _ZNSt8messagesIcED2Ev
0000000000088300 P _ZN11__gnu_debug19_Safe_iterator_base9_M_detachEv
0000000000088310 P _ZNSt13basic_filebufIcSt11char_traitsIcEED1Ev
0000000000088320 P _ZNKSt7__cxx119money_putIwSt19ostreambuf_iteratorIwSt11char_traitsIwEEE9_M_insertILb0EEES4_S4_RSt8ios_basewRKNS_12basic_stringIwS3_SaIwEEE
0000000000088330 P _ZNSt13basic_istreamIwSt11char_traitsIwEE7putbackEw
0000000000088340 P _ZNKSs5rfindEPKcmm
0000000000088350 P _ZNSs5eraseEmm
0000000000088360 P _ZNKSbIwSt11char_traitsIwESaIwEE4findEwm
0000000000088370 P __cxa_throw
0000000000088380 P _ZNSt8ios_base7_M_moveERS_
0000000000088390 P _ZNKSt8time_getIwSt19istreambuf_iteratorIwSt11char_traitsIwEEE14_M_extract_numES3_S3_RiiimRSt8ios_baseRSt12_Ios_Iostate
00000000000883a0 P _ZNSt7__cxx1112basic_stringIwSt11char_traitsIwESaIwEE9_M_assignERKS4_
00000000000883b0 P _ZNSt15basic_stringbufIwSt11char_traitsIwESaIwEE7_M_syncEPwmm
00000000000883c0 P __newlocale
00000000000883d0 P _ZNKSbIwSt11char_traitsIwESaIwEE4findEPKwmm
00000000000883e0 P _ZNSt8ios_base17_M_call_callbacksENS_5eventE
00000000000883f0 P _ZNSi10_M_extractIxEERSiRT_
0000000000088400 P poll
0000000000088410 P pthread_create
0000000000088420 P _ZNSt7codecvtIcc11__mbstate_tEC1EP15__locale_structm
0000000000088430 P _ZNSt7__cxx1115basic_stringbufIwSt11char_traitsIwESaIwEE7_M_syncEPwmm
0000000000088440 P _ZNSt7__cxx1112basic_stringIcSt11char_traitsIcESaIcEE8_M_eraseEmm
0000000000088450 P _ZNSt11__timepunctIcED1Ev
0000000000088460 P frexpl
0000000000088470 P _ZNKSt7num_putIcSt19ostreambuf_iteratorIcSt11char_traitsIcEEE15_M_insert_floatIdEES3_S3_RSt8ios_baseccT_
0000000000088480 P strerror
0000000000088490 P _ZNSt25__codecvt_utf8_utf16_baseIDiED1Ev
00000000000884a0 P _ZNSt13basic_istreamIwSt11char_traitsIwEE10_M_extractIfEERS2_RT_
00000000000884b0 P _ZNKSt7num_getIwSt19istreambuf_iteratorIwSt11char_traitsIwEEE14_M_extract_intItEES3_S3_S3_RSt8ios_baseRSt12_Ios_IostateRT_
00000000000884c0 P _ZNSt13basic_filebufIwSt11char_traitsIwEEC1EOS2_
00000000000884d0 P _ZSt17__throw_bad_allocv
00000000000884e0 P _ZNSt20__codecvt_utf16_baseIDsED1Ev
00000000000884f0 P _ZSt14__convert_to_vIdEvPKcRT_RSt12_Ios_IostateRKP15__locale_struct
0000000000088500 P _ZSt21__throw_runtime_errorPKc
0000000000088510 P _ZNSt12__basic_fileIcE7seekoffElSt12_Ios_Seekdir
0000000000088520 P _ZNSt7__cxx1112basic_stringIcSt11char_traitsIcESaIcEE9_M_appendEPKcm
0000000000088530 P __cxa_demangle
0000000000088540 P _ZNSs4_Rep8_M_cloneERKSaIcEm
0000000000088550 P _ZNKSt7num_putIcSt19ostreambuf_iteratorIcSt11char_traitsIcEEE6_M_padEclRSt8ios_basePcPKcRi
0000000000088560 P _ZNSt10moneypunctIwLb0EE24_M_initialize_moneypunctEP15__locale_structPKc
0000000000088570 P _ZNSs6appendERKSs
0000000000088580 P _ZNKSt7__cxx119money_putIwSt19ostreambuf_iteratorIwSt11char_traitsIwEEE9_M_insertILb1EEES4_S4_RSt8ios_basewRKNS_12basic_stringIwS3_SaIwEEE
0000000000088590 P _ZNSt8ios_base5imbueERKSt6locale
00000000000885a0 P _ZNKSt7__cxx1112basic_stringIwSt11char_traitsIwESaIwEE13find_first_ofEPKwmm
00000000000885b0 P fputs
00000000000885c0 P _ZNSt8ios_base4InitD1Ev
00000000000885d0 P _ZNSt9basic_iosIwSt11char_traitsIwEE5clearESt12_Ios_Iostate
00000000000885e0 P _ZNKSt7num_getIwSt19istreambuf_iteratorIwSt11char_traitsIwEEE14_M_extract_intIjEES3_S3_S3_RSt8ios_baseRSt12_Ios_IostateRT_
00000000000885f0 P _ZNSt6locale5_Impl16_M_replace_facetEPKS0_PKNS_2idE
0000000000088600 P _ZNKSt7num_getIcSt19istreambuf_iteratorIcSt11char_traitsIcEEE14_M_extract_intIxEES3_S3_S3_RSt8ios_baseRSt12_Ios_IostateRT_
0000000000088610 P _ZNSt7__cxx1110moneypunctIcLb0EED2Ev
0000000000088620 P _ZNSt7__cxx1112basic_stringIcSt11char_traitsIcESaIcEE9_M_createERmm
0000000000088630 P _ZNSt12bad_weak_ptrD1Ev
0000000000088640 P _ZNSt7__cxx1110moneypunctIwLb0EED1Ev
0000000000088650 P _ZNSt12__basic_fileIcE4syncEv
0000000000088660 P _ZNKSt7__cxx118time_getIcSt19istreambuf_iteratorIcSt11char_traitsIcEEE24_M_extract_wday_or_monthES4_S4_RiPPKcmRSt8ios_baseRSt12_Ios_Iostate
0000000000088670 P _ZNSbIwSt11char_traitsIwESaIwEE12_S_constructIPwEES4_T_S5_RKS1_St20forward_iterator_tag
0000000000088680 P _ZN10__cxxabiv120__si_class_type_infoD1Ev
0000000000088690 P _ZNKSt7num_putIwSt19ostreambuf_iteratorIwSt11char_traitsIwEEE14_M_group_floatEPKcmwPKwPwS9_Ri
00000000000886a0 P mbsrtowcs
00000000000886b0 P _ZNSo5flushEv
00000000000886c0 P _ZNSt13__future_base19_Async_state_commonD1Ev
00000000000886d0 P _ZNSt6locale5_ImplC1ERKS0_m
00000000000886e0 P _ZNSt13basic_istreamIwSt11char_traitsIwEE10_M_extractIjEERS2_RT_
00000000000886f0 P _ZNSbIwSt11char_traitsIwESaIwEE12_S_constructEmwRKS1_
0000000000088700 P _ZNSt7__cxx118messagesIwED1Ev
0000000000088710 P _ZSt9has_facetISt7num_getIwSt19istreambuf_iteratorIwSt11char_traitsIwEEEEbRKSt6locale
0000000000088720 P _ZNSt8numpunctIcED1Ev
0000000000088730 P _ZNSt13basic_ostreamIwSt11char_traitsIwEE9_M_insertIeEERS2_T_
0000000000088740 P _ZNSt6localeaSERKS_
0000000000088750 P _ZNSt10ostrstreamD1Ev
0000000000088760 P wcrtomb
0000000000088770 P _ZNSt11__timepunctIcEC1EPSt17__timepunct_cacheIcEm
0000000000088780 P _ZNSt15basic_streambufIcSt11char_traitsIcEE6xsputnEPKcl
0000000000088790 P _ZNSt6thread15_M_start_threadESt10shared_ptrINS_10_Impl_baseEEPFvvE
00000000000887a0 P putwc
00000000000887b0 P _ZNSt9exceptionD1Ev
00000000000887c0 P _ZNSt13basic_istreamIwSt11char_traitsIwEE10_M_extractImEERS2_RT_
00000000000887d0 P _ZSt9has_facetISt7codecvtIwc11__mbstate_tEEbRKSt6locale
00000000000887e0 P _ZNSt16nested_exceptionD1Ev
00000000000887f0 P _ZN9__gnu_cxx9free_list8_M_clearEv
0000000000088800 P _ZNSt15messages_bynameIwEC1EPKcm
0000000000088810 P _ZSt16generic_categoryv
0000000000088820 P _ZNSt13basic_filebufIcSt11char_traitsIcEE4swapERS2_
0000000000088830 P _ZNKSt11__timepunctIwE21_M_months_abbreviatedEPPKw
0000000000088840 P _ZNKSbIwSt11char_traitsIwESaIwEE17find_first_not_ofEPKwmm
0000000000088850 P _ZNKSt7__cxx1112basic_stringIcSt11char_traitsIcESaIcEE13find_first_ofEPKcmm
0000000000088860 P _ZNSt7__cxx1112basic_stringIcSt11char_traitsIcESaIcEE12_M_constructEmc
0000000000088870 P _ZSt16__ostream_insertIcSt11char_traitsIcEERSt13basic_ostreamIT_T0_ES6_PKS3_l
0000000000088880 P _ZNSt13basic_filebufIwSt11char_traitsIwEEC1Ev
0000000000088890 P _ZNSt11__timepunctIcEC1EP15__locale_structPKcm
00000000000888a0 P _ZNSt9basic_iosIwSt11char_traitsIwEE4initEPSt15basic_streambufIwS1_E
00000000000888b0 P putc
00000000000888c0 P _ZNKSt9money_putIwSt19ostreambuf_iteratorIwSt11char_traitsIwEEE9_M_insertILb1EEES3_S3_RSt8ios_basewRKSbIwS2_SaIwEE
00000000000888d0 P _ZNSi3getERSt15basic_streambufIcSt11char_traitsIcEEc
00000000000888e0 P __cxa_end_catch
00000000000888f0 P _ZNSt7codecvtIwc11__mbstate_tED1Ev
0000000000088900 P _ZNSt8ios_base7failureB5cxx11C1EPKcRKSt10error_code
0000000000088910 P __cxa_guard_acquire
0000000000088920 P _ZNSt13basic_filebufIcSt11char_traitsIcEE4openEPKcSt13_Ios_Openmode
0000000000088930 P memmove
0000000000088940 P _ZNKSt7num_putIcSt19ostreambuf_iteratorIcSt11char_traitsIcEEE13_M_insert_intIlEES3_S3_RSt8ios_basecT_
0000000000088950 P strchr
0000000000088960 P _ZNSt7__cxx1112basic_stringIcSt11char_traitsIcESaIcEE12_M_constructIN9__gnu_cxx17__normal_iteratorIPcS4_EEEEvT_SA_St20forward_iterator_tag
0000000000088970 P _ZNKSs17find_first_not_ofEPKcmm
0000000000088980 P _ZNSt9type_infoD1Ev
0000000000088990 P _ZNSt8messagesIwEC1Em
00000000000889a0 P _ZNSt13basic_filebufIwSt11char_traitsIwEEC2Ev
00000000000889b0 P vsnprintf
00000000000889c0 P fread
00000000000889d0 P _ZNSt13runtime_errorC2EPKc
00000000000889e0 P wmemmove
00000000000889f0 P _ZNSt13basic_filebufIwSt11char_traitsIwEED1Ev
0000000000088a00 P _ZNSt8messagesIwED2Ev
0000000000088a10 P getenv
0000000000088a20 P _ZN11__gnu_debug19_Safe_iterator_base16_M_detach_singleEv
0000000000088a30 P _ZSt16__ostream_insertIwSt11char_traitsIwEERSt13basic_ostreamIT_T0_ES6_PKS3_l
0000000000088a40 P _ZNSt7__cxx1110moneypunctIwLb0EE24_M_initialize_moneypunctEP15__locale_structPKc
0000000000088a50 P _Unwind_GetIPInfo
0000000000088a60 P _ZNSt6locale21_S_normalize_categoryEi
0000000000088a70 P _ZNSt15basic_stringbufIcSt11char_traitsIcESaIcEE8_M_pbumpEPcS4_l
0000000000088a80 P _ZNSt13basic_filebufIwSt11char_traitsIwEE19_M_terminate_outputEv
0000000000088a90 P _ZNSi7putbackEc
0000000000088aa0 P _ZNSt7__cxx1110moneypunctIcLb1EED1Ev
0000000000088ab0 P _ZNSt7__cxx1115basic_stringbufIcSt11char_traitsIcESaIcEE7_M_syncEPcmm
0000000000088ac0 P __errno_location
0000000000088ad0 P __cxa_get_globals
0000000000088ae0 P _ZNSt12strstreambuf7_M_freeEPc
0000000000088af0 P _ZNSt6localeD1Ev
0000000000088b00 P _ZNSt7__cxx1112basic_stringIcSt11char_traitsIcESaIcEE4swapERS4_
0000000000088b10 P _ZNSt11__timepunctIcE23_M_initialize_timepunctEP15__locale_struct
0000000000088b20 P _ZNSs9push_backEc
0000000000088b30 P _ZNSt9basic_iosIwSt11char_traitsIwEE5rdbufEPSt15basic_streambufIwS1_E
0000000000088b40 P _ZNKSt7num_putIwSt19ostreambuf_iteratorIwSt11char_traitsIwEEE13_M_insert_intIlEES3_S3_RSt8ios_basewT_
0000000000088b50 P _ZNSt13basic_filebufIwSt11char_traitsIwEE26_M_destroy_internal_bufferEv
0000000000088b60 P _ZNSt7__cxx1112basic_stringIwSt11char_traitsIwESaIwEE14_M_replace_auxEmmmw
0000000000088b70 P _ZNSi6ignoreEl
0000000000088b80 P _ZNKSs12find_last_ofEPKcmm
0000000000088b90 P _ZNSt13basic_istreamIwSt11char_traitsIwEE10_M_extractIbEERS2_RT_
0000000000088ba0 P _ZNSt18__moneypunct_cacheIcLb1EE8_M_cacheERKSt6locale
0000000000088bb0 P _ZNSt15basic_stringbufIwSt11char_traitsIwESaIwEE8_M_pbumpEPwS4_l
0000000000088bc0 P __uselocale
0000000000088bd0 P _ZNSbIwSt11char_traitsIwESaIwEE12_M_leak_hardEv
0000000000088be0 P _ZSt9use_facetISt7num_putIwSt19ostreambuf_iteratorIwSt11char_traitsIwEEEERKT_RKSt6locale
0000000000088bf0 P __stack_chk_fail
0000000000088c00 P _ZSt9use_facetISt11__timepunctIwEERKT_RKSt6locale
0000000000088c10 P _ZNSt8ios_base4InitC1Ev
0000000000088c20 P _ZN9__gnu_cxx6__poolILb1EE16_M_get_thread_idEv
0000000000088c30 P _ZNSt13basic_istreamIwSt11char_traitsIwEE7getlineEPwlw
0000000000088c40 P _ZNSt13basic_istreamIwSt11char_traitsIwEE10_M_extractIeEERS2_RT_
0000000000088c50 P _ZSt9use_facetISt7codecvtIcc11__mbstate_tEERKT_RKSt6locale
0000000000088c60 P _ZNSt7__cxx1110moneypunctIcLb0EED1Ev
0000000000088c70 P _ZNSt13basic_istreamIwSt11char_traitsIwEE6ignoreEl
0000000000088c80 P strcmp
0000000000088c90 P _ZNSt10istrstreamD1Ev
0000000000088ca0 P _ZNSt8ios_baseD2Ev
0000000000088cb0 P _ZNSt7codecvtIDsc11__mbstate_tED2Ev
0000000000088cc0 P _ZNSt13runtime_errorC1EPKc
0000000000088cd0 P _ZNKSt7collateIwE12_M_transformEPwPKwm
0000000000088ce0 P _ZNSt8messagesIwED1Ev
0000000000088cf0 P _ZNSt13basic_ostreamIwSt11char_traitsIwEE3putEw
0000000000088d00 P _ZSt9use_facetISt10moneypunctIcLb1EEERKT_RKSt6locale
0000000000088d10 P _ZNSt13basic_filebufIwSt11char_traitsIwEE22_M_convert_to_externalEPwl
0000000000088d20 P _ZNSt7__cxx118messagesIwEC1EP15__locale_structPKcm
0000000000088d30 P _ZNKSs4copyEPcmm
0000000000088d40 P _ZNKSs4findEcm
0000000000088d50 P _ZNSt7__cxx118numpunctIwED1Ev
0000000000088d60 P _ZNSt7__cxx1119basic_ostringstreamIcSt11char_traitsIcESaIcEED1Ev
0000000000088d70 P get_nprocs
0000000000088d80 P _ZNSt10moneypunctIwLb1EE24_M_initialize_moneypunctEP15__locale_structPKc
0000000000088d90 P _ZNKSt7__cxx1112basic_stringIwSt11char_traitsIwESaIwEE12find_last_ofEPKwmm
0000000000088da0 P _ZNSt8messagesIwEC2Em
0000000000088db0 P _ZNSt11__timepunctIwEC1EP15__locale_structPKcm
0000000000088dc0 P _ZSt9has_facetISt7num_putIcSt19ostreambuf_iteratorIcSt11char_traitsIcEEEEbRKSt6locale
0000000000088dd0 P _ZNSi10_M_extractItEERSiRT_
0000000000088de0 P _ZNKSt7num_putIwSt19ostreambuf_iteratorIwSt11char_traitsIwEEE12_M_group_intEPKcmwRSt8ios_basePwS9_Ri
0000000000088df0 P _ZNSo9_M_insertIxEERSoT_
0000000000088e00 P __dynamic_cast
0000000000088e10 P _ZNSt12strstreambuf3strEv
0000000000088e20 P __strtod_l
0000000000088e30 P _ZNSt7codecvtIDic11__mbstate_tED2Ev
0000000000088e40 P _ZSt19__throw_logic_errorPKc
0000000000088e50 P _ZNSt10moneypunctIcLb0EED2Ev
0000000000088e60 P getwc
0000000000088e70 P _ZNSt11__timepunctIwEC1EPSt17__timepunct_cacheIwEm
0000000000088e80 P _ZNSt6locale5facet15_S_get_c_localeEv
0000000000088e90 P _ZNKSt7__cxx117collateIcE12_M_transformEPcPKcm
0000000000088ea0 P _ZNSt12ctype_bynameIwEC1EPKcm
0000000000088eb0 P nanosleep
0000000000088ec0 P _ZSt17iostream_categoryv
0000000000088ed0 P _ZNSi10_M_extractIbEERSiRT_
0000000000088ee0 P _ZNSt7__cxx1112basic_stringIcSt11char_traitsIcESaIcEE12_M_constructIPKcEEvT_S8_St20forward_iterator_tag
0000000000088ef0 P _ZNSsC1EmcRKSaIcE
0000000000088f00 P pthread_cond_wait
0000000000088f10 P _ZNSt7__cxx1112basic_stringIwSt11char_traitsIwESaIwEE12_M_constructIPwEEvT_S7_St20forward_iterator_tag
0000000000088f20 P _ZNSt20__codecvt_utf16_baseIwED1Ev
0000000000088f30 P _ZNSt9basic_iosIwSt11char_traitsIwEE5imbueERKSt6locale
0000000000088f40 P _ZNKSt12__basic_fileIcE7is_openEv
0000000000088f50 P _ZNKSt7__cxx119money_getIwSt19istreambuf_iteratorIwSt11char_traitsIwEEE10_M_extractILb1EEES4_S4_S4_RSt8ios_baseRSt12_Ios_IostateRNS_12basic_stringIcS2_IcESaIcEEE
0000000000088f60 P _ZNSt15__exception_ptr13exception_ptrC1ERKS0_
0000000000088f70 P _ZNKSt6locale4nameB5cxx11Ev
0000000000088f80 P _ZNSt7__cxx1110moneypunctIcLb1EE24_M_initialize_moneypunctEP15__locale_structPKc
0000000000088f90 P _ZNSt13basic_istreamIwSt11char_traitsIwEE10_M_extractItEERS2_RT_
0000000000088fa0 P _ZNSt15basic_streambufIwSt11char_traitsIwEEaSERKS2_
0000000000088fb0 P _ZNSt12strstreambufC1El
0000000000088fc0 P _ZNSt7__cxx1112basic_stringIcSt11char_traitsIcESaIcEE9push_backEc
0000000000088fd0 P _ZNSt7__cxx118numpunctIcED1Ev
0000000000088fe0 P _ZNSt9exceptionD2Ev
0000000000088ff0 P _ZNSt13basic_ostreamIwSt11char_traitsIwEE9_M_insertIPKvEERS2_T_
0000000000089000 P _ZNSt3_V215system_categoryEv
0000000000089010 P _ZNSbIwSt11char_traitsIwESaIwEE15_M_replace_safeEmmPKwm
0000000000089020 P _ZNKSt7__cxx1112basic_stringIcSt11char_traitsIcESaIcEE5rfindEcm
0000000000089030 P memcmp
0000000000089040 P _ZNSbIwSt11char_traitsIwESaIwEE14_M_replace_auxEmmmw
0000000000089050 P __cxa_vec_ctor
0000000000089060 P _ZNSt7__cxx1110moneypunctIcLb1EED2Ev
0000000000089070 P _ZNSt17__timepunct_cacheIwED1Ev
0000000000089080 P _ZNSt13basic_filebufIcSt11char_traitsIcEE7_M_seekElSt12_Ios_Seekdir11__mbstate_t
0000000000089090 P _ZNSt9basic_iosIcSt11char_traitsIcEE4initEPSt15basic_streambufIcS1_E
00000000000890a0 P _ZNSt7__cxx118numpunctIcE22_M_initialize_numpunctEP15__locale_struct
00000000000890b0 P _ZNKSt12strstreambuf6pcountEv
00000000000890c0 P _ZNSt7__cxx118messagesIcED1Ev
00000000000890d0 P _ZNSt10moneypunctIwLb0EED1Ev
00000000000890e0 P writev
00000000000890f0 P _ZNKSt7num_putIwSt19ostreambuf_iteratorIwSt11char_traitsIwEEE15_M_insert_floatIeEES3_S3_RSt8ios_basewcT_
0000000000089100 P _ZNSt7__cxx1112basic_stringIwSt11char_traitsIwESaIwEE12_M_constructIN9__gnu_cxx17__normal_iteratorIPKwS4_EEEEvT_SB_St20forward_iterator_tag
0000000000089110 P _ZNSt8ios_base7_M_initEv
0000000000089120 P fclose
0000000000089130 P _ZNKSt7__cxx1112basic_stringIcSt11char_traitsIcESaIcEE4findEcm
0000000000089140 P _ZNKSt7collateIcE12_M_transformEPcPKcm
0000000000089150 P _ZNKSt7__cxx1112basic_stringIwSt11char_traitsIwESaIwEE4findEwm
0000000000089160 P _ZNSbIwSt11char_traitsIwESaIwEE9_M_mutateEmmm
0000000000089170 P isalnum
0000000000089180 P _ZNKSt11__timepunctIcE6_M_putEPcmPKcPK2tm
0000000000089190 P _ZNKSt7num_putIwSt19ostreambuf_iteratorIwSt11char_traitsIwEEE13_M_insert_intImEES3_S3_RSt8ios_basewT_
00000000000891a0 P _ZSt9use_facetISt7codecvtIwc11__mbstate_tEERKT_RKSt6locale
00000000000891b0 P _ZNSt7__cxx1112basic_stringIwSt11char_traitsIwESaIwEE6resizeEmw
00000000000891c0 P _ZNSs6assignERKSs
00000000000891d0 P _ZNSt19__codecvt_utf8_baseIwED1Ev
00000000000891e0 P isspace
00000000000891f0 P _ZNSt13basic_filebufIwSt11char_traitsIwEE4swapERS2_
0000000000089200 P _ZNSt13basic_filebufIwSt11char_traitsIwEE14_M_get_ext_posER11__mbstate_t
0000000000089210 P __cxa_throw_bad_array_new_length
0000000000089220 P _ZNSt9basic_iosIcSt11char_traitsIcEE15_M_cache_localeERKSt6locale
0000000000089230 P lseek64
0000000000089240 P _ZNSt5ctypeIcEC1EP15__locale_structPKtbm
0000000000089250 P _ZNSt14error_categoryD1Ev
0000000000089260 P _ZNSs6insertEmPKcm
0000000000089270 P _ZNSt13basic_ostreamIwSt11char_traitsIwEE5flushEv
0000000000089280 P _ZNSt3_V216generic_categoryEv
0000000000089290 P _ZNSt7__cxx1112basic_stringIwSt11char_traitsIwESaIwEE7reserveEm
00000000000892a0 P _ZNSi7getlineEPclc
00000000000892b0 P _Unwind_GetTextRelBase
00000000000892c0 P __freelocale
00000000000892d0 P pthread_key_delete
00000000000892e0 P _ZNSt12__basic_fileIcE5closeEv
00000000000892f0 P _ZNKSt7__cxx118time_getIcSt19istreambuf_iteratorIcSt11char_traitsIcEEE21_M_extract_via_formatES4_S4_RSt8ios_baseRSt12_Ios_IostateP2tmPKc
0000000000089300 P _ZNSt7__cxx1112basic_stringIwSt11char_traitsIwESaIwEE9push_backEw
0000000000089310 P bind_textdomain_codeset
0000000000089320 P _ZN9__gnu_cxx17__pool_alloc_base16_M_get_free_listEm
0000000000089330 P _ZSt9use_facetISt10moneypunctIwLb1EEERKT_RKSt6locale
0000000000089340 P wcsnrtombs
0000000000089350 P _ZNSt9basic_iosIcSt11char_traitsIcEE5rdbufEPSt15basic_streambufIcS1_E
0000000000089360 P _ZNSi6sentryC1ERSib
0000000000089370 P _ZNKSbIwSt11char_traitsIwESaIwEE16find_last_not_ofEPKwmm
0000000000089380 P _ZNSt13basic_filebufIcSt11char_traitsIcEE5closeEv
0000000000089390 P _ZNSt9basic_iosIcSt11char_traitsIcEE5imbueERKSt6locale
00000000000893a0 P _ZNSt8messagesIcEC2Em
00000000000893b0 P _ZNSt16__numpunct_cacheIcE8_M_cacheERKSt6locale
00000000000893c0 P __sprintf_chk
00000000000893d0 P btowc
00000000000893e0 P _ZNSt7__cxx1115basic_stringbufIwSt11char_traitsIwESaIwEE14__xfer_bufptrsD1Ev
00000000000893f0 P _ZNSt8messagesIcED1Ev
0000000000089400 P _ZNSt7__cxx1115messages_bynameIcEC1EPKcm
0000000000089410 P _ZNKSt7num_getIcSt19istreambuf_iteratorIcSt11char_traitsIcEEE14_M_extract_intIyEES3_S3_S3_RSt8ios_baseRSt12_Ios_IostateRT_
0000000000089420 P _ZNSt18condition_variableC1Ev
0000000000089430 P _ZNSt7__cxx1112basic_stringIwSt11char_traitsIwESaIwEE12_M_constructIN9__gnu_cxx17__normal_iteratorIPwS4_EEEEvT_SA_St20forward_iterator_tag
0000000000089440 P _ZSt13get_terminatev
0000000000089450 P __snprintf_chk
0000000000089460 P _ZNSt6locale5facetD2Ev
0000000000089470 P _ZNSbIwSt11char_traitsIwESaIwEEC1EPKwmRKS1_
0000000000089480 P _ZNSt15__exception_ptr13exception_ptr4swapERS0_
0000000000089490 P _ZNSt7__cxx1112basic_stringIcSt11char_traitsIcESaIcEE7reserveEm
00000000000894a0 P _ZNSt8numpunctIwED2Ev
00000000000894b0 P _ZNKSt7__cxx118time_getIwSt19istreambuf_iteratorIwSt11char_traitsIwEEE24_M_extract_wday_or_monthES4_S4_RiPPKwmRSt8ios_baseRSt12_Ios_Iostate
00000000000894c0 P fopen64
00000000000894d0 P _ZNSt28__atomic_futex_unsigned_base19_M_futex_notify_allEPj
00000000000894e0 P _ZNSs4swapERSs
00000000000894f0 P _ZNKSt7__cxx118time_getIwSt19istreambuf_iteratorIwSt11char_traitsIwEEE21_M_extract_via_formatES4_S4_RSt8ios_baseRSt12_Ios_IostateP2tmPKw
0000000000089500 P _ZNSt19istreambuf_iteratorIwSt11char_traitsIwEEppEv
0000000000089510 P _ZNSbIwSt11char_traitsIwESaIwEE4_Rep10_M_destroyERKS1_
0000000000089520 P _ZNSt18__moneypunct_cacheIwLb1EED1Ev
0000000000089530 P _ZNKSt9money_getIcSt19istreambuf_iteratorIcSt11char_traitsIcEEE10_M_extractILb1EEES3_S3_S3_RSt8ios_baseRSt12_Ios_IostateRSs
0000000000089540 P _ZSt9use_facetISt7num_getIwSt19istreambuf_iteratorIwSt11char_traitsIwEEEERKT_RKSt6locale
0000000000089550 P wcscmp
0000000000089560 P fwrite
0000000000089570 P _ZNSo9_M_insertImEERSoT_
0000000000089580 P _ZNSbIwSt11char_traitsIwESaIwEE12_S_constructIN9__gnu_cxx17__normal_iteratorIPwS2_EEEES6_T_S8_RKS1_St20forward_iterator_tag
0000000000089590 P _ZN11__gnu_debug19_Safe_sequence_base12_M_get_mutexEv
00000000000895a0 P pthread_mutex_lock
00000000000895b0 P _ZNKSt7num_getIwSt19istreambuf_iteratorIwSt11char_traitsIwEEE14_M_extract_intImEES3_S3_S3_RSt8ios_baseRSt12_Ios_IostateRT_
00000000000895c0 P __cxa_free_dependent_exception
00000000000895d0 P realloc
00000000000895e0 P _ZNSo9_M_insertIyEERSoT_
00000000000895f0 P _ZNSt12strstreambuf6freezeEb
0000000000089600 P _ZNSo9_M_insertIbEERSoT_
0000000000089610 P _ZNSt10moneypunctIwLb1EED2Ev
0000000000089620 P _ZNKSt7num_putIcSt19ostreambuf_iteratorIcSt11char_traitsIcEEE13_M_insert_intImEES3_S3_RSt8ios_basecT_
0000000000089630 P _ZNSt9basic_iosIcSt11char_traitsIcEE5clearESt12_Ios_Iostate
0000000000089640 P _ZNKSt7num_getIcSt19istreambuf_iteratorIcSt11char_traitsIcEEE14_M_extract_intIjEES3_S3_S3_RSt8ios_baseRSt12_Ios_IostateRT_
0000000000089650 P _ZNSbIwSt11char_traitsIwESaIwEE4_Rep8_M_cloneERKS1_m
0000000000089660 P _ZNSt7__cxx118messagesIcEC2Em
0000000000089670 P setlocale
0000000000089680 P floor
0000000000089690 P _ZNSt12__basic_fileIcE8xsputn_2EPKclS2_l
00000000000896a0 P _ZNSbIwSt11char_traitsIwESaIwEE6insertEmPKwm
00000000000896b0 P _ZNSt13basic_filebufIcSt11char_traitsIcEEC1Ev
00000000000896c0 P _ZNKSt7num_getIwSt19istreambuf_iteratorIwSt11char_traitsIwEEE14_M_extract_intIxEES3_S3_S3_RSt8ios_baseRSt12_Ios_IostateRT_
00000000000896d0 P _ZNSt7__cxx1119basic_ostringstreamIwSt11char_traitsIwESaIwEED1Ev
00000000000896e0 P _ZNKSbIwSt11char_traitsIwESaIwEE13find_first_ofEPKwmm
00000000000896f0 P _ZNKSt7num_putIcSt19ostreambuf_iteratorIcSt11char_traitsIcEEE14_M_group_floatEPKcmcS6_PcS7_Ri
0000000000089700 P _ZN10__cxxabiv129__pointer_to_member_type_infoD1Ev
0000000000089710 P _ZStrsIwSt11char_traitsIwEERSt13basic_istreamIT_T0_ES6_RS3_
0000000000089720 P _ZNSs6resizeEmc
0000000000089730 P _ZNSt12__basic_fileIcEC1EP15pthread_mutex_t
0000000000089740 P _ZNSt7__cxx118messagesIwED2Ev
0000000000089750 P _ZNSt13basic_ostreamIwSt11char_traitsIwEE9_M_insertImEERS2_T_
0000000000089760 P _ZNKSt7__cxx119money_getIcSt19istreambuf_iteratorIcSt11char_traitsIcEEE10_M_extractILb0EEES4_S4_S4_RSt8ios_baseRSt12_Ios_IostateRNS_12basic_stringIcS3_SaIcEEE
0000000000089770 P _ZNK11__gnu_debug16_Error_formatter10_Parameter14_M_print_fieldEPKS0_PKc
0000000000089780 P _ZN10__cxxabiv117__class_type_infoD1Ev
0000000000089790 P _ZNSt11logic_errorC2ERKNSt7__cxx1112basic_stringIcSt11char_traitsIcESaIcEEE
00000000000897a0 P _ZNKSt7__cxx117collateIcE10_M_compareEPKcS3_
00000000000897b0 P __cxa_rethrow
00000000000897c0 P write
00000000000897d0 P _ZNSt10moneypunctIcLb1EE24_M_initialize_moneypunctEP15__locale_structPKc
00000000000897e0 P _ZNSt6locale11_M_coalesceERKS_S1_i
00000000000897f0 P _ZNSbIwSt11char_traitsIwESaIwEEC1ERKS2_mm
0000000000089800 P _ZNSt8ios_base7_M_swapERS_
0000000000089810 P _ZNSt13basic_filebufIcSt11char_traitsIcEE22_M_convert_to_externalEPcl
0000000000089820 P _ZNSs12_S_constructIPKcEEPcT_S3_RKSaIcESt20forward_iterator_tag
0000000000089830 P _ZNSt11logic_errorD2Ev
0000000000089840 P _Unwind_Resume
0000000000089850 P pthread_cond_broadcast
0000000000089860 P _ZNSi10_M_extractIPvEERSiRT_
0000000000089870 P pthread_detach
0000000000089880 P ftello64
0000000000089890 P _ZNSt13basic_filebufIwSt11char_traitsIwEE27_M_allocate_internal_bufferEv
00000000000898a0 P _ZNKSt8time_getIcSt19istreambuf_iteratorIcSt11char_traitsIcEEE24_M_extract_wday_or_monthES3_S3_RiPPKcmRSt8ios_baseRSt12_Ios_Iostate
00000000000898b0 P _ZNSt7__cxx1112basic_stringIcSt11char_traitsIcESaIcEE9_M_mutateEmmPKcm
00000000000898c0 P _ZNSt7__cxx1112basic_stringIcSt11char_traitsIcESaIcEE9_M_assignERKS4_
00000000000898d0 P _ZNSt7codecvtIcc11__mbstate_tED1Ev
00000000000898e0 P _ZNSt7__cxx1112basic_stringIwSt11char_traitsIwESaIwEE12_M_constructIPKwEEvT_S8_St20forward_iterator_tag
00000000000898f0 P strtoul
0000000000089900 P _ZSt14get_unexpectedv
0000000000089910 P _ZSt20__throw_system_errori
0000000000089920 P pthread_mutex_unlock
0000000000089930 P _ZNSt16__numpunct_cacheIcED1Ev
0000000000089940 P _ZSt17__verify_groupingPKcmRKSs
0000000000089950 P _ZNSt13basic_ostreamIwSt11char_traitsIwEE9_M_insertIlEERS2_T_
0000000000089960 P _ZNSt15__exception_ptreqERKNS_13exception_ptrES2_
0000000000089970 P _ZNKSt8time_getIwSt19istreambuf_iteratorIwSt11char_traitsIwEEE15_M_extract_nameES3_S3_RiPPKwmRSt8ios_baseRSt12_Ios_Iostate
0000000000089980 P _ZNSt12ctype_bynameIwED1Ev
0000000000089990 P memcpy
00000000000899a0 P pthread_setspecific
00000000000899b0 P _ZNSt9basic_iosIwSt11char_traitsIwEE15_M_cache_localeERKSt6locale
00000000000899c0 P _ZNKSt7__cxx119money_getIwSt19istreambuf_iteratorIwSt11char_traitsIwEEE10_M_extractILb0EEES4_S4_S4_RSt8ios_baseRSt12_Ios_IostateRNS_12basic_stringIcS2_IcESaIcEEE
00000000000899d0 P _ZNSt9strstreamD1Ev
00000000000899e0 P _ZN10__cxxabiv117__class_type_infoD2Ev
00000000000899f0 P _ZNSsC1ERKSs
0000000000089a00 P _ZNSt8messagesIcEC1EP15__locale_structPKcm
0000000000089a10 P _ZNK11__gnu_debug19_Safe_iterator_base11_M_singularEv
0000000000089a20 P _ZNKSt7__cxx1112basic_stringIcSt11char_traitsIcESaIcEE16find_last_not_ofEPKcmm
0000000000089a30 P _ZNSi10_M_extractIeEERSiRT_
0000000000089a40 P _ZNSt13__future_base12_Result_baseD1Ev
0000000000089a50 P _ZNSt7codecvtIwc11__mbstate_tED2Ev
0000000000089a60 P _Unwind_SetIP
0000000000089a70 P _ZNSt15__exception_ptr13exception_ptrD1Ev
0000000000089a80 P _ZNSo6sentryC1ERSo
0000000000089a90 P __towlower_l
0000000000089aa0 P _ZSt9has_facetISt5ctypeIcEEbRKSt6locale
0000000000089ab0 P _ZNKSt7num_getIcSt19istreambuf_iteratorIcSt11char_traitsIcEEE16_M_extract_floatES3_S3_RSt8ios_baseRSt12_Ios_IostateRSs
0000000000089ac0 P _ZSt9terminatev
0000000000089ad0 P _ZNSo9_M_insertIdEERSoT_
0000000000089ae0 P _ZNSt13basic_ostreamIwSt11char_traitsIwEE6sentryD1Ev
0000000000089af0 P _ZNSo9_M_insertIPKvEERSoT_
0000000000089b00 P _ZNSt15basic_stringbufIwSt11char_traitsIwESaIwEED1Ev
0000000000089b10 P _ZNKSt7num_getIwSt19istreambuf_iteratorIwSt11char_traitsIwEEE16_M_extract_floatES3_S3_RSt8ios_baseRSt12_Ios_IostateRSs
0000000000089b20 P _ZNSt12strstreambuf8_M_setupEPcS0_l
0000000000089b30 P _ZNSs6appendEPKcm
0000000000089b40 P _ZSt11_Hash_bytesPKvmm
0000000000089b50 P _ZNKSt7num_putIwSt19ostreambuf_iteratorIwSt11char_traitsIwEEE13_M_insert_intIxEES3_S3_RSt8ios_basewT_
0000000000089b60 P wmemset
0000000000089b70 P _ZNSt12out_of_rangeC1EPKc
0000000000089b80 P _ZNSt7__cxx1112basic_stringIcSt11char_traitsIcESaIcEE6resizeEmc
0000000000089b90 P fflush
0000000000089ba0 P _ZNKSt7num_putIcSt19ostreambuf_iteratorIcSt11char_traitsIcEEE13_M_insert_intIxEES3_S3_RSt8ios_basecT_
0000000000089bb0 P _ZN11__gnu_debug25_Safe_local_iterator_base9_M_detachEv
0000000000089bc0 P _ZNSt8messagesIcEC1Em
0000000000089bd0 P _ZNSt7__cxx118numpunctIwED2Ev
0000000000089be0 P _ZNSt6locale5_ImplC1EPKcm
0000000000089bf0 P _ZNSt5ctypeIwED2Ev
0000000000089c00 P _ZNSt11logic_errorC1EPKc
0000000000089c10 P _ZNKSt7__cxx1112basic_stringIwSt11char_traitsIwESaIwEE5rfindEwm
0000000000089c20 P _ZNSt20__codecvt_utf16_baseIDiED1Ev
0000000000089c30 P getc
0000000000089c40 P pthread_join
0000000000089c50 P _ZNSt7__cxx1112basic_stringIcSt11char_traitsIcESaIcEE14_M_replace_auxEmmmc
0000000000089c60 ? __dynsym_end
000000000008a640 T _ZNSt11char_traitsIcE2eqERKcS2_
000000000008a650 T _ZNSt11char_traitsIwE2eqERKwS2_
000000000008a660 T _ZNSt19istreambuf_iteratorIcSt11char_traitsIcEEppEv
000000000008a6a0 T _ZNSt19istreambuf_iteratorIwSt11char_traitsIwEEppEv
000000000008a6e0 T _ZNSs7_M_copyEPcPKcm
000000000008a700 T _ZNSs7_M_moveEPcPKcm
000000000008a720 T _ZNSs9_M_assignEPcmc
000000000008a750 T _ZNKSs11_M_disjunctEPKc
000000000008a770 T _ZNKSs15_M_check_lengthEmmPKc
000000000008a7a0 T _ZNSs4_Rep26_M_set_length_and_sharableEm
000000000008a7c0 T _ZNSi6ignoreEv
000000000008a8e0 T _ZNSi6ignoreEl
000000000008ab50 T _ZNKSt13basic_fstreamIcSt11char_traitsIcEE7is_openEv
000000000008ab60 T _ZNKSt14basic_ifstreamIcSt11char_traitsIcEE7is_openEv
000000000008ab70 T _ZNKSt14basic_ofstreamIcSt11char_traitsIcEE7is_openEv
000000000008ab80 T _ZNSbIwSt11char_traitsIwESaIwEE7_M_copyEPwPKwm
000000000008aba0 T _ZNSbIwSt11char_traitsIwESaIwEE7_M_moveEPwPKwm
000000000008abc0 T _ZNSbIwSt11char_traitsIwESaIwEE9_M_assignEPwmw
000000000008abf0 T _ZNKSbIwSt11char_traitsIwESaIwEE11_M_disjunctEPKw
000000000008ac10 T _ZNKSbIwSt11char_traitsIwESaIwEE15_M_check_lengthEmmPKc
000000000008ac40 T _ZNSbIwSt11char_traitsIwESaIwEE4_Rep26_M_set_length_and_sharableEm
000000000008ac70 T _ZNSt13basic_istreamIwSt11char_traitsIwEE6ignoreEv
000000000008ad90 T _ZNSt13basic_istreamIwSt11char_traitsIwEE6ignoreEl
000000000008b000 T _ZNKSt13basic_fstreamIwSt11char_traitsIwEE7is_openEv
000000000008b010 T _ZNKSt14basic_ifstreamIwSt11char_traitsIwEE7is_openEv
000000000008b020 T _ZNKSt14basic_ofstreamIwSt11char_traitsIwEE7is_openEv
000000000008b030 T _ZN10__gnu_norm15_List_node_base4swapERS0_S1_
000000000008b0c0 T _ZN10__gnu_norm15_List_node_base8transferEPS0_S1_
000000000008b0f0 T _ZN10__gnu_norm15_List_node_base7reverseEv
000000000008b110 T _ZN10__gnu_norm15_List_node_base4hookEPS0_
000000000008b130 T _ZN10__gnu_norm15_List_node_base6unhookEv
000000000008b140 T _ZNSt6__norm15_List_node_base4swapERS0_S1_
000000000008b1d0 T _ZNSt6__norm15_List_node_base8transferEPS0_S1_
000000000008b200 T _ZNSt6__norm15_List_node_base7reverseEv
000000000008b220 T _ZNSt6__norm15_List_node_base4hookEPS0_
000000000008b240 T _ZNSt6__norm15_List_node_base6unhookEv
000000000008b250 T _ZNSt6__norm15_List_node_base11_M_transferEPS0_S1_
000000000008b280 T _ZNSt6__norm15_List_node_base10_M_reverseEv
000000000008b2a0 T _ZNSt6__norm15_List_node_base7_M_hookEPS0_
000000000008b2c0 T _ZNSt6__norm15_List_node_base9_M_unhookEv
000000000008b2d0 T _ZNKSt10lock_error4whatEv
000000000008b300 T _ZNKSt14error_category10equivalentEiRKSt15error_condition
000000000008b3c0 T _ZNKSt4hashISsEclESs
000000000008b3e0 T _ZNKSt4hashIRKSsEclES1_
000000000008b400 T _ZNKSt4hashISbIwSt11char_traitsIwESaIwEEEclES3_
000000000008b420 T _ZNKSt4hashIRKSbIwSt11char_traitsIwESaIwEEEclES5_
000000000008b440 T _ZNKSt4hashISt10error_codeEclES0_
000000000008b480 T _ZNSt14error_categoryC1Ev
000000000008b490 T _ZNSt14error_categoryD2Ev
000000000008b500 T _ZNSt14error_categoryD0Ev
000000000008b520 T _ZSt15system_categoryv
000000000008b530 T _ZNKSt14error_category23default_error_conditionEi
000000000008b580 T _ZSt16generic_categoryv
000000000008b590 T _ZNKSt14error_category10equivalentERKSt10error_codei
000000000008b5f0 T _ZNVSt9__atomic011atomic_flag12test_and_setESt12memory_order
000000000008b650 T _ZNSt9__atomic011atomic_flag5clearESt12memory_order
000000000008b690 T atomic_flag_test_and_set_explicit
000000000008b6a0 T atomic_flag_clear_explicit
000000000008b6b0 T __atomic_flag_wait_explicit
000000000008b6e0 T __atomic_flag_for_address
000000000008b7b0 T _ZNSt13__future_base11_State_baseD2Ev
000000000008b800 T _ZNSt13__future_base11_State_baseD0Ev
000000000008b8e0 T _ZNSt13__future_base19_Async_state_commonD1Ev
000000000008b970 T _ZNSt13__future_base19_Async_state_commonD0Ev
000000000008b9f0 T _ZNSt6chrono12system_clock3nowEv
000000000008ba40 T _ZNSt22condition_variable_anyC2Ev
000000000008ba80 T _ZNSt22condition_variable_anyD1Ev
000000000008ba90 T _ZN10__cxxabiv117__array_type_infoD2Ev
000000000008bab0 T _ZN10__cxxabiv117__array_type_infoD0Ev
000000000008bad0 T __cxa_thread_atexit
000000000008bae0 T _ZNKSt9bad_alloc4whatEv
000000000008baf0 T _ZNSt9bad_allocD2Ev
000000000008bb10 T _ZNSt9bad_allocD0Ev
000000000008bb30 T _ZNKSt16bad_array_length4whatEv
000000000008bb40 T _ZNSt16bad_array_lengthD1Ev
000000000008bb60 T _ZNSt16bad_array_lengthD0Ev
000000000008bb80 T __cxa_throw_bad_array_length
000000000008bbc0 T _ZNKSt20bad_array_new_length4whatEv
000000000008bbd0 T _ZNSt20bad_array_new_lengthD2Ev
000000000008bbf0 T _ZNSt20bad_array_new_lengthD0Ev
000000000008bc10 T _ZNKSt8bad_cast4whatEv
000000000008bc20 T _ZNSt8bad_castD2Ev
000000000008bc40 T _ZNSt8bad_castD0Ev
000000000008bc60 T _ZNKSt10bad_typeid4whatEv
000000000008bc70 T _ZNSt10bad_typeidD1Ev
000000000008bc90 T _ZNSt10bad_typeidD0Ev
000000000008bcb0 T _ZNK10__cxxabiv117__class_type_info11__do_upcastEPKS0_PPv
000000000008bd30 T _ZNK10__cxxabiv117__class_type_info20__do_find_public_srcElPKvPKS0_S2_
000000000008bd40 T _ZN10__cxxabiv117__class_type_infoD2Ev
000000000008bd60 T _ZN10__cxxabiv117__class_type_infoD0Ev
000000000008bd80 T _ZNK10__cxxabiv117__class_type_info11__do_upcastEPKS0_PKvRNS0_15__upcast_resultE
000000000008bdd0 T _ZNK10__cxxabiv117__class_type_info12__do_dyncastElNS0_10__sub_kindEPKS0_PKvS3_S5_RNS0_16__dyncast_resultE
000000000008be90 T _ZNK10__cxxabiv117__class_type_info10__do_catchEPKSt9type_infoPPvj
000000000008bf10 T _ZdlPv
000000000008bf20 T _ZdlPvm
000000000008bf30 T _ZdlPvRKSt9nothrow_t
000000000008bf40 T _ZdaPv
000000000008bf50 T _ZdaPvm
000000000008bf60 T _ZdaPvRKSt9nothrow_t
000000000008bf70 T __dynamic_cast
000000000008c410 T __cxa_allocate_exception
000000000008c490 T __cxa_free_exception
000000000008c4e0 T __cxa_allocate_dependent_exception
000000000008c560 T __cxa_free_dependent_exception
000000000008c5b0 T __cxa_bad_cast
000000000008c5f0 T __cxa_bad_typeid
000000000008c630 T __cxa_throw_bad_array_new_length
000000000008c6b0 T __cxa_get_exception_ptr
000000000008c6c0 T __cxa_begin_catch
000000000008c730 T __cxa_end_catch
000000000008c7c0 T _ZSt18uncaught_exceptionv
000000000008c7e0 T _ZNSt9exceptionD2Ev
000000000008c7f0 T _ZNSt13bad_exceptionD2Ev
000000000008c810 T _ZNKSt9exception4whatEv
000000000008c820 T _ZNKSt13bad_exception4whatEv
000000000008c830 T _ZNSt9exceptionD0Ev
000000000008c850 T _ZNSt13bad_exceptionD0Ev
000000000008c870 T __cxa_get_globals_fast
000000000008c890 T __cxa_get_globals
000000000008cd20 T __gxx_personality_v0
000000000008d300 T __cxa_call_unexpected
000000000008d450 T _ZNSt15__exception_ptr13exception_ptrC2Ev
000000000008d460 T _ZNSt15__exception_ptr13exception_ptrC2EMS0_FvvE
000000000008d490 T _ZNSt15__exception_ptr13exception_ptrC2ERKS0_
000000000008d4e0 T _ZNSt15__exception_ptr13exception_ptrD1Ev
000000000008d500 T _ZNSt15__exception_ptr13exception_ptr4swapERS0_
000000000008d510 T _ZNSt15__exception_ptr13exception_ptraSERKS0_
000000000008d570 T _ZNKSt15__exception_ptr13exception_ptrntEv
000000000008d580 T _ZNKSt15__exception_ptr13exception_ptrcvMS0_FvvEEv
000000000008d5a0 T _ZNKSt15__exception_ptr13exception_ptr20__cxa_exception_typeEv
000000000008d5b0 T _ZNSt15__exception_ptreqERKNS_13exception_ptrES2_
000000000008d5c0 T _ZNSt15__exception_ptrneERKNS_13exception_ptrES2_
000000000008d5e0 T _ZSt17current_exceptionv
000000000008d640 T _ZSt17rethrow_exceptionNSt15__exception_ptr13exception_ptrE
000000000008d6d0 T _ZSt13set_terminatePFvvE
000000000008d6e0 T _ZSt13get_terminatev
000000000008d6f0 T _ZSt9terminatev
000000000008d720 T _ZSt14set_unexpectedPFvvE
000000000008d730 T _ZSt14get_unexpectedv
000000000008d740 T _ZSt10unexpectedv
000000000008d7a0 T __cxa_tm_cleanup
000000000008d8b0 T __cxa_throw
000000000008d920 T __cxa_rethrow
000000000008d980 T __cxa_current_exception_type
000000000008d9c0 T _ZN10__cxxabiv116__enum_type_infoD2Ev
000000000008d9e0 T _ZN10__cxxabiv116__enum_type_infoD0Ev
000000000008da00 T _ZNK10__cxxabiv120__function_type_info15__is_function_pEv
000000000008da10 T _ZN10__cxxabiv120__function_type_infoD1Ev
000000000008da30 T _ZN10__cxxabiv120__function_type_infoD0Ev
000000000008da50 T _ZN10__cxxabiv123__fundamental_type_infoD2Ev
000000000008da70 T _ZN10__cxxabiv123__fundamental_type_infoD0Ev
000000000008da90 T __cxa_guard_acquire
000000000008dbc0 T __cxa_guard_abort
000000000008dc40 T __cxa_guard_release
000000000008dd10 T _ZSt11_Hash_bytesPKvmm
000000000008ddd0 T _ZSt15_Fnv_hash_bytesPKvmm
000000000008de00 T _ZNSt16nested_exceptionD2Ev
000000000008de20 T _ZNSt16nested_exceptionD0Ev
000000000008de40 T _ZSt15set_new_handlerPFvvE
000000000008de50 T _ZSt15get_new_handlerv
000000000008de60 T _Znwm
000000000008dec0 T _ZnwmRKSt9nothrow_t
000000000008df10 T _Znam
000000000008df40 T _ZnamRKSt9nothrow_t
000000000008df50 w _ZNK10__cxxabiv117__pbase_type_info15__pointer_catchEPKS0_PPvj
000000000008df70 T _ZN10__cxxabiv117__pbase_type_infoD1Ev
000000000008df90 T _ZN10__cxxabiv117__pbase_type_infoD0Ev
000000000008dfb0 T _ZNK10__cxxabiv117__pbase_type_info10__do_catchEPKSt9type_infoPPvj
000000000008e090 T _ZN10__cxxabiv129__pointer_to_member_type_infoD2Ev
000000000008e0b0 T _ZN10__cxxabiv129__pointer_to_member_type_infoD0Ev
000000000008e0d0 T _ZNK10__cxxabiv129__pointer_to_member_type_info15__pointer_catchEPKNS_17__pbase_type_infoEPPvj
000000000008e150 T _ZNK10__cxxabiv119__pointer_type_info14__is_pointer_pEv
000000000008e160 T _ZN10__cxxabiv119__pointer_type_infoD1Ev
000000000008e180 T _ZN10__cxxabiv119__pointer_type_infoD0Ev
000000000008e1a0 T _ZNK10__cxxabiv119__pointer_type_info15__pointer_catchEPKNS_17__pbase_type_infoEPPvj
000000000008e220 T __cxa_pure_virtual
000000000008e240 T __cxa_deleted_virtual
000000000008e260 T _ZN10__cxxabiv120__si_class_type_infoD2Ev
000000000008e280 T _ZN10__cxxabiv120__si_class_type_infoD0Ev
000000000008e2a0 T _ZNK10__cxxabiv120__si_class_type_info12__do_dyncastElNS_17__class_type_info10__sub_kindEPKS1_PKvS4_S6_RNS1_16__dyncast_resultE
000000000008e3e0 T _ZNK10__cxxabiv120__si_class_type_info20__do_find_public_srcElPKvPKNS_17__class_type_infoES2_
000000000008e460 T _ZNK10__cxxabiv120__si_class_type_info11__do_upcastEPKNS_17__class_type_infoEPKvRNS1_15__upcast_resultE
000000000008e4b0 T _ZNSt9type_infoD2Ev
000000000008e4c0 T _ZNKSt9type_info15__is_function_pEv
000000000008e4d0 T _ZNKSt9type_info11__do_upcastEPKN10__cxxabiv117__class_type_infoEPPv
000000000008e4e0 T _ZNSt9type_infoD0Ev
000000000008e500 T _ZNKSt9type_info10__do_catchEPKS_PPvj
000000000008e5b0 T __cxa_vec_cleanup
000000000008e610 T __cxa_vec_ctor
000000000008e6d0 T __cxa_vec_new2
000000000008e7d0 T __cxa_vec_new
000000000008e7f0 T __cxa_vec_new3
000000000008e8f0 T __cxa_vec_cctor
000000000008e9c0 T __cxa_vec_dtor
000000000008ea80 T __cxa_vec_delete2
000000000008eb30 T __cxa_vec_delete
000000000008eb40 T __cxa_vec_delete3
000000000008ec10 T _ZN10__cxxabiv121__vmi_class_type_infoD2Ev
000000000008ec30 T _ZN10__cxxabiv121__vmi_class_type_infoD0Ev
000000000008ec50 T _ZNK10__cxxabiv121__vmi_class_type_info20__do_find_public_srcElPKvPKNS_17__class_type_infoES2_
000000000008ed50 T _ZNK10__cxxabiv121__vmi_class_type_info12__do_dyncastElNS_17__class_type_info10__sub_kindEPKS1_PKvS4_S6_RNS1_16__dyncast_resultE
000000000008f450 T _ZNK10__cxxabiv121__vmi_class_type_info11__do_upcastEPKNS_17__class_type_infoEPKvRNS1_15__upcast_resultE
000000000008f6e0 T _ZN9__gnu_cxx27__verbose_terminate_handlerEv
0000000000098d00 T __cxa_demangle
0000000000098fe0 T _ZN9__gnu_cxx9free_list8_M_clearEv
0000000000099130 T _ZN9__gnu_cxx9free_list6_M_getEm
00000000000993b0 T _ZN9__gnu_cxx17__pool_alloc_base16_M_get_free_listEm
00000000000993d0 T _ZN9__gnu_cxx17__pool_alloc_base12_M_get_mutexEv
0000000000099610 T _ZN9__gnu_cxx17__pool_alloc_base9_M_refillEm
00000000000998a0 T _ZN9__gnu_cxx6__poolILb0EE10_M_destroyEv
0000000000099940 T _ZN9__gnu_cxx6__poolILb0EE16_M_reclaim_blockEPcm
0000000000099960 T _ZN9__gnu_cxx6__poolILb0EE16_M_reserve_blockEmm
0000000000099a10 T _ZN9__gnu_cxx6__poolILb0EE13_M_initializeEv
0000000000099b10 T _ZN9__gnu_cxx6__poolILb1EE10_M_destroyEv
0000000000099c30 T _ZN9__gnu_cxx6__poolILb1EE16_M_reserve_blockEmm
0000000000099e60 T _ZN9__gnu_cxx6__poolILb1EE13_M_initializeEv
000000000009a260 T _ZN9__gnu_cxx6__poolILb1EE16_M_get_thread_idEv
000000000009a360 T _ZN9__gnu_cxx6__poolILb1EE16_M_reclaim_blockEPcm
000000000009a540 T _ZN9__gnu_cxx6__poolILb1EE21_M_destroy_thread_keyEPv
000000000009a550 T _ZN9__gnu_cxx6__poolILb1EE13_M_initializeEPFvPvE
000000000009a950 T _ZNKSt7codecvtIcc11__mbstate_tE5do_inERS0_PKcS4_RS4_PcS6_RS6_
000000000009a970 T _ZNKSt7codecvtIcc11__mbstate_tE16do_always_noconvEv
000000000009a980 T _ZNKSt7codecvtIcc11__mbstate_tE9do_lengthERS0_PKcS4_m
000000000009a990 T _ZNKSt7codecvtIcc11__mbstate_tE13do_max_lengthEv
000000000009a9a0 T _ZNKSt7codecvtIcc11__mbstate_tE10do_unshiftERS0_PcS3_RS3_
000000000009a9b0 T _ZNKSt7codecvtIwc11__mbstate_tE16do_always_noconvEv
000000000009a9c0 T _ZNSt7codecvtIcc11__mbstate_tED2Ev
000000000009aa20 T _ZNSt7codecvtIcc11__mbstate_tED0Ev
000000000009aa40 T _ZNSt7codecvtIwc11__mbstate_tED2Ev
000000000009aaa0 T _ZNSt7codecvtIwc11__mbstate_tED0Ev
000000000009aac0 T _ZNSt7codecvtIcc11__mbstate_tEC1Em
000000000009ab20 T _ZNSt7codecvtIcc11__mbstate_tEC1EP15__locale_structm
000000000009ab60 T _ZNSt7codecvtIwc11__mbstate_tEC2Em
000000000009abc0 T _ZNSt7codecvtIwc11__mbstate_tEC1EP15__locale_structm
000000000009acd0 w _ZStrsIfcSt11char_traitsIcEERSt13basic_istreamIT0_T1_ES6_RSt7complexIT_E
000000000009add0 w _ZStrsIdcSt11char_traitsIcEERSt13basic_istreamIT0_T1_ES6_RSt7complexIT_E
000000000009aed0 w _ZStrsIecSt11char_traitsIcEERSt13basic_istreamIT0_T1_ES6_RSt7complexIT_E
000000000009afe0 w _ZStrsIfwSt11char_traitsIwEERSt13basic_istreamIT0_T1_ES6_RSt7complexIT_E
000000000009b0e0 w _ZStrsIdwSt11char_traitsIwEERSt13basic_istreamIT0_T1_ES6_RSt7complexIT_E
000000000009b1e0 w _ZStrsIewSt11char_traitsIwEERSt13basic_istreamIT0_T1_ES6_RSt7complexIT_E
000000000009b2f0 w _ZNSt7__cxx1115basic_stringbufIcSt11char_traitsIcESaIcEED1Ev
000000000009b330 w _ZStlsIecSt11char_traitsIcEERSt13basic_ostreamIT0_T1_ES6_RKSt7complexIT_E
000000000009b830 w _ZStlsIdcSt11char_traitsIcEERSt13basic_ostreamIT0_T1_ES6_RKSt7complexIT_E
000000000009bd30 w _ZStlsIfcSt11char_traitsIcEERSt13basic_ostreamIT0_T1_ES6_RKSt7complexIT_E
000000000009c230 w _ZNSt7__cxx1115basic_stringbufIcSt11char_traitsIcESaIcEED0Ev
000000000009c280 w _ZNSt7__cxx1115basic_stringbufIwSt11char_traitsIwESaIwEED2Ev
000000000009c2c0 w _ZStlsIewSt11char_traitsIwEERSt13basic_ostreamIT0_T1_ES6_RKSt7complexIT_E
000000000009c860 w _ZStlsIdwSt11char_traitsIwEERSt13basic_ostreamIT0_T1_ES6_RKSt7complexIT_E
000000000009cdf0 w _ZStlsIfwSt11char_traitsIwEERSt13basic_ostreamIT0_T1_ES6_RKSt7complexIT_E
000000000009d390 w _ZNSt7__cxx1115basic_stringbufIwSt11char_traitsIwESaIwEED0Ev
000000000009d3e0 T _ZNKSt3tr14hashIeEclEe
000000000009d560 T _ZNKSt3tr14hashISsEclESs
000000000009d5b0 T _ZNKSt3tr14hashIRKSsEclES2_
000000000009d600 T _ZNKSt3tr14hashISbIwSt11char_traitsIwESaIwEEEclES4_
000000000009d660 T _ZNKSt3tr14hashIRKSbIwSt11char_traitsIwESaIwEEEclES6_
000000000009d6c0 T _ZNKSt8ios_base7failure4whatEv
000000000009d6d0 T _ZNSt8ios_base7failureD2Ev
000000000009d770 T _ZNSt8ios_base7failureD0Ev
000000000009d790 T _ZNSt8ios_base7failureC1ERKSs
000000000009d7e0 T _ZNSt8ios_base4InitC1Ev
000000000009e0b0 T _ZNSt8ios_base4InitD1Ev
000000000009e140 T _ZNSt8ios_base15sync_with_stdioEb
000000000009e3c0 T _ZNSt8ios_base7_M_initEv
000000000009e430 T _ZNSt8ios_base5imbueERKSt6locale
000000000009e480 w _ZNKSt9basic_iosIcSt11char_traitsIcEEcvPvEv
000000000009e490 w _ZNKSt9basic_iosIwSt11char_traitsIwEEcvPvEv
000000000009e4a0 T _ZNSt8__detail15_List_node_base4swapERS0_S1_
000000000009e530 T _ZNSt8__detail15_List_node_base11_M_transferEPS0_S1_
000000000009e560 T _ZNSt8__detail15_List_node_base10_M_reverseEv
000000000009e580 T _ZNSt8__detail15_List_node_base7_M_hookEPS0_
000000000009e5a0 T _ZNSt8__detail15_List_node_base9_M_unhookEv
000000000009e5b0 T _ZNSt15_List_node_base4swapERS_S0_
000000000009e640 T _ZNSt15_List_node_base8transferEPS_S0_
000000000009e670 T _ZNSt15_List_node_base7reverseEv
000000000009e690 T _ZNSt15_List_node_base4hookEPS_
000000000009e6b0 T _ZNSt15_List_node_base6unhookEv
000000000009e6c0 T _ZNSt15_List_node_base11_M_transferEPS_S0_
000000000009e6f0 T _ZNSt15_List_node_base10_M_reverseEv
000000000009e710 T _ZNSt15_List_node_base7_M_hookEPS_
000000000009e730 T _ZNSt15_List_node_base9_M_unhookEv
000000000009e740 T _ZNSt9__cxx199815_List_node_base4swapERS0_S1_
000000000009e7d0 T _ZNSt9__cxx199815_List_node_base8transferEPS0_S1_
000000000009e800 T _ZNSt9__cxx199815_List_node_base7reverseEv
000000000009e820 T _ZNSt9__cxx199815_List_node_base4hookEPS0_
000000000009e840 T _ZNSt9__cxx199815_List_node_base6unhookEv
000000000009e850 T _ZNSt9__cxx199815_List_node_base11_M_transferEPS0_S1_
000000000009e880 T _ZNSt9__cxx199815_List_node_base10_M_reverseEv
000000000009e8a0 T _ZNSt9__cxx199815_List_node_base7_M_hookEPS0_
000000000009e8c0 T _ZNSt9__cxx199815_List_node_base9_M_unhookEv
000000000009e8d0 T _ZNSt6locale5facetD2Ev
000000000009e8e0 T _ZNSt6locale5facetD0Ev
000000000009e920 T _ZNSt6localeC1ERKS_
000000000009e940 T _ZNSt6localeC2EPNS_5_ImplE
000000000009e950 T _ZNKSt6locale4nameB5cxx11Ev
000000000009ec80 T _ZNKSt6localeeqERKS_
000000000009ede0 T _ZNSt6locale21_S_normalize_categoryEi
000000000009ee90 T _ZNSt6locale5facet15_S_get_c_localeEv
000000000009eee0 T _ZNSt6locale5facet13_S_get_c_nameEv
000000000009eef0 T _ZNSt6locale5_ImplD1Ev
000000000009f060 T _ZNSt6localeaSERKS_
000000000009f0d0 T _ZNSt6localeD1Ev
000000000009f120 T _ZNSt6locale5_ImplC1ERKS0_m
000000000009f310 T _ZNKSt6locale2id5_M_idEv
000000000009f350 T _ZNSt6locale5_Impl16_M_install_facetEPKNS_2idEPKNS_5facetE
000000000009f7a0 T _ZNSt6locale5_Impl16_M_replace_facetEPKS0_PKNS_2idE
000000000009f7f0 T _ZNSt6locale5_Impl19_M_replace_categoryEPKS0_PKPKNS_2idE
000000000009f830 T _ZNSt6locale5_Impl16_M_install_cacheEPKNS_5facetEm
000000000009fb20 T _ZNSt6locale5_ImplC2Em
00000000000a0dd0 T _ZNSt6localeC2Ev
00000000000a0ec0 T _ZNSt6locale7classicEv
00000000000a0ef0 T _ZNSt6locale6globalERKS_
00000000000a1080 T _ZNSt10__num_base15_S_format_floatERKSt8ios_basePcc
00000000000a11e0 T _ZSt17__verify_groupingPKcmRKSs
00000000000a1210 T _ZNSt6locale5_ImplC2EPKcm
00000000000a1c70 T _ZNSt6localeC2EPKc
00000000000a2670 T _ZNSt6locale5_Impl21_M_replace_categoriesEPKS0_i
00000000000a2850 T _ZNSt6locale11_M_coalesceERKS_S1_i
00000000000a2910 T _ZNSt6localeC2ERKS_S1_i
00000000000a2920 T _ZNSt6localeC2ERKS_PKci
00000000000a29b0 T _ZNKSt13runtime_error4whatEv
00000000000a29c0 T _ZNSt11logic_errorD1Ev
00000000000a2a60 T _ZNSt11logic_errorD0Ev
00000000000a2a80 T _ZNSt12domain_errorD2Ev
00000000000a2aa0 T _ZNSt12domain_errorD0Ev
00000000000a2ac0 T _ZNSt16invalid_argumentD2Ev
00000000000a2ae0 T _ZNSt16invalid_argumentD0Ev
00000000000a2b00 T _ZNSt12length_errorD2Ev
00000000000a2b20 T _ZNSt12length_errorD0Ev
00000000000a2b40 T _ZNSt12out_of_rangeD2Ev
00000000000a2b60 T _ZNSt12out_of_rangeD0Ev
00000000000a2b80 T _ZNSt13runtime_errorD2Ev
00000000000a2c20 T _ZNSt13runtime_errorD0Ev
00000000000a2c40 T _ZNSt11range_errorD2Ev
00000000000a2c60 T _ZNSt11range_errorD0Ev
00000000000a2c80 T _ZNSt14overflow_errorD1Ev
00000000000a2ca0 T _ZNSt14overflow_errorD0Ev
00000000000a2cc0 T _ZNSt15underflow_errorD1Ev
00000000000a2ce0 T _ZNSt15underflow_errorD0Ev
00000000000a2d00 T _ZNSt11logic_errorC2ERKSs
00000000000a2d40 T _ZNSt12domain_errorC1ERKSs
00000000000a2d60 T _ZNSt16invalid_argumentC1ERKSs
00000000000a2d80 T _ZNSt12length_errorC2ERKSs
00000000000a2da0 T _ZNSt12out_of_rangeC1ERKSs
00000000000a2dc0 T _ZNSt13runtime_errorC2ERKSs
00000000000a2e00 T _ZNSt11range_errorC1ERKSs
00000000000a2e20 T _ZNSt14overflow_errorC2ERKSs
00000000000a2e40 T _ZNSt15underflow_errorC1ERKSs
00000000000a2e60 T _ZNSt12strstreambuf9pbackfailEi
00000000000a2ec0 T _ZNSt12strstreambuf9underflowEv
00000000000a2ef0 T _ZNSt12strstreambuf6setbufEPcl
00000000000a2f00 T _ZNSt12strstreambuf7seekoffElSt12_Ios_SeekdirSt13_Ios_Openmode
00000000000a30b0 T _ZNSt12strstreambuf7seekposESt4fposI11__mbstate_tESt13_Ios_Openmode
00000000000a30f0 T _ZNSt12strstreambuf6freezeEb
00000000000a3110 T _ZNSt12strstreambuf3strEv
00000000000a3130 T _ZNKSt12strstreambuf6pcountEv
00000000000a3150 T _ZNSt12strstreambuf8_M_allocEm
00000000000a3170 T _ZNSt12strstreambufC2EPFPvmEPFvS0_E
00000000000a3240 T _ZNSt12strstreambufC2El
00000000000a3330 T _ZNSt12strstreambuf7_M_freeEPc
00000000000a3360 T _ZNSt12strstreambufD1Ev
00000000000a33d0 T _ZNSt12strstreambufD0Ev
00000000000a33f0 T _ZNSt10istrstreamD1Ev
00000000000a3460 T _ZTv0_n24_NSt10istrstreamD1Ev
00000000000a3470 T _ZNSt10istrstreamD0Ev
00000000000a3490 T _ZTv0_n24_NSt10istrstreamD0Ev
00000000000a34a0 T _ZNSt10ostrstreamD1Ev
00000000000a3510 T _ZTv0_n24_NSt10ostrstreamD1Ev
00000000000a3520 T _ZNSt10ostrstreamD0Ev
00000000000a3540 T _ZTv0_n24_NSt10ostrstreamD0Ev
00000000000a3550 T _ZNSt9strstreamD1Ev
00000000000a35d0 T _ZTv0_n24_NSt9strstreamD1Ev
00000000000a35e0 T _ZThn16_NSt9strstreamD1Ev
00000000000a35f0 T _ZNSt9strstreamD0Ev
00000000000a3610 T _ZTv0_n24_NSt9strstreamD0Ev
00000000000a3620 T _ZThn16_NSt9strstreamD0Ev
00000000000a3630 T _ZNSt12strstreambuf8overflowEi
00000000000a3750 T _ZNSt12strstreambuf8_M_setupEPcS0_l
00000000000a37d0 T _ZNSt12strstreambufC1EPhlS0_
00000000000a3870 T _ZNSt12strstreambufC1EPKal
00000000000a3910 T _ZNSt10istrstreamC2EPc
00000000000a39c0 T _ZNSt10istrstreamC1EPc
00000000000a3ac0 T _ZNSt10istrstreamC2EPKc
00000000000a3b60 T _ZNSt10istrstreamC1EPKc
00000000000a3c60 T _ZNSt10istrstreamC2EPcl
00000000000a3d10 T _ZNSt10istrstreamC1EPcl
00000000000a3e10 T _ZNSt10istrstreamC2EPKcl
00000000000a3eb0 T _ZNSt10istrstreamC1EPKcl
00000000000a3fb0 T _ZNSt10istrstreamD2Ev
00000000000a4010 T _ZNKSt10istrstream5rdbufEv
00000000000a4020 T _ZNSt10istrstream3strEv
00000000000a4030 T _ZNSt10ostrstreamC2Ev
00000000000a40d0 T _ZNSt10ostrstreamC1Ev
00000000000a41c0 T _ZNSt10ostrstreamC2EPciSt13_Ios_Openmode
00000000000a4270 T _ZNSt10ostrstreamC1EPciSt13_Ios_Openmode
00000000000a4380 T _ZNSt10ostrstreamD2Ev
00000000000a43e0 T _ZNKSt10ostrstream5rdbufEv
00000000000a43f0 T _ZNSt10ostrstream6freezeEb
00000000000a4400 T _ZNSt10ostrstream3strEv
00000000000a4410 T _ZNKSt10ostrstream6pcountEv
00000000000a4420 T _ZNSt9strstreamC2Ev
00000000000a4540 T _ZNSt9strstreamC1Ev
00000000000a4660 T _ZNSt9strstreamC2EPciSt13_Ios_Openmode
00000000000a47b0 T _ZNSt9strstreamC1EPciSt13_Ios_Openmode
00000000000a48f0 T _ZNSt9strstreamD2Ev
00000000000a49c0 T _ZNKSt9strstream5rdbufEv
00000000000a49d0 T _ZNSt9strstream6freezeEb
00000000000a49e0 T _ZNKSt9strstream6pcountEv
00000000000a49f0 T _ZNSt9strstream3strEv
00000000000a4a60 T _ZSt18_Rb_tree_incrementPKSt18_Rb_tree_node_base
00000000000a4ab0 T _ZSt18_Rb_tree_incrementPSt18_Rb_tree_node_base
00000000000a4ac0 T _ZSt18_Rb_tree_decrementPSt18_Rb_tree_node_base
00000000000a4ad0 T _ZSt18_Rb_tree_decrementPKSt18_Rb_tree_node_base
00000000000a4ae0 T _ZSt20_Rb_tree_rotate_leftPSt18_Rb_tree_node_baseRS0_
00000000000a4b40 T _ZSt21_Rb_tree_rotate_rightPSt18_Rb_tree_node_baseRS0_
00000000000a4ba0 T _ZSt29_Rb_tree_insert_and_rebalancebPSt18_Rb_tree_node_baseS0_RS_
00000000000a4e70 T _ZSt28_Rb_tree_rebalance_for_erasePSt18_Rb_tree_node_baseRS_
00000000000a53e0 T _ZSt20_Rb_tree_black_countPKSt18_Rb_tree_node_baseS1_
00000000000a5410 T _ZNSi7getlineEPclc
00000000000a5760 T _ZNSi6ignoreEli
00000000000a5a90 T _ZStrsIcSt11char_traitsIcEERSt13basic_istreamIT_T0_ES6_PS3_
00000000000a5df0 T _ZNSt13basic_istreamIwSt11char_traitsIwEE7getlineEPwlw
00000000000a6130 T _ZNSt13basic_istreamIwSt11char_traitsIwEE6ignoreElj
00000000000a6460 T _ZStrsIcSt11char_traitsIcESaIcEERSt13basic_istreamIT_T0_ES7_RNSt7__cxx1112basic_stringIS4_S5_T1_EE
00000000000a68a0 T _ZSt7getlineIcSt11char_traitsIcESaIcEERSt13basic_istreamIT_T0_ES7_RNSt7__cxx1112basic_stringIS4_S5_T1_EES4_
00000000000a6c20 T _ZSt7getlineIwSt11char_traitsIwESaIwEERSt13basic_istreamIT_T0_ES7_RNSt7__cxx1112basic_stringIS4_S5_T1_EES4_
00000000000a6fc0 T _ZSt21__copy_streambufs_eofIcSt11char_traitsIcEElPSt15basic_streambufIT_T0_ES6_Rb
00000000000a70d0 T _ZSt21__copy_streambufs_eofIwSt11char_traitsIwEElPSt15basic_streambufIT_T0_ES6_Rb
00000000000a71d0 w _ZNSt8valarrayImEC2Em
00000000000a7210 w _ZNSt8valarrayImEC2ERKS0_
00000000000a7250 w _ZNSt8valarrayImED2Ev
00000000000a7260 w _ZNKSt8valarrayImE4sizeEv
00000000000a7270 w _ZNSt8valarrayImEixEm
00000000000a7370 T _ZNSt6gslice8_IndexerC2EmRKSt8valarrayImES4_
00000000000a74c0 T _ZStrsIcSt11char_traitsIcESaIcEERSt13basic_istreamIT_T0_ES7_RSbIS4_S5_T1_E
00000000000a78b0 T _ZSt7getlineIcSt11char_traitsIcESaIcEERSt13basic_istreamIT_T0_ES7_RSbIS4_S5_T1_ES4_
00000000000a7bf0 T _ZSt7getlineIwSt11char_traitsIwESaIwEERSt13basic_istreamIT_T0_ES7_RSbIS4_S5_T1_ES4_
00000000000a7f40 T _ZNKSt7collateIcE10_M_compareEPKcS2_
00000000000a7f70 T _ZNKSt7collateIcE12_M_transformEPcPKcm
00000000000a7f90 T _ZNKSt7collateIwE10_M_compareEPKwS2_
00000000000a7fc0 T _ZNKSt7collateIwE12_M_transformEPwPKwm
00000000000a8180 T _ZNKSt8messagesIcE7do_openERKSsRKSt6locale
00000000000a84f0 T _ZNKSt8messagesIcE6do_getEiiiRKSs
00000000000a86d0 T _ZNKSt8messagesIwE7do_openERKSsRKSt6locale
00000000000a8a40 T _ZNKSt8messagesIwE8do_closeEi
00000000000a8c80 T _ZNKSt8messagesIwE6do_getEiiiRKSbIwSt11char_traitsIwESaIwEE
00000000000a8fd0 w _ZNSt18__moneypunct_cacheIcLb1EED1Ev
00000000000a9030 w _ZNSt18__moneypunct_cacheIcLb1EED0Ev
00000000000a9050 w _ZNSt18__moneypunct_cacheIcLb0EED2Ev
00000000000a90b0 w _ZNSt18__moneypunct_cacheIcLb0EED0Ev
00000000000a90d0 w _ZNSt18__moneypunct_cacheIwLb1EED1Ev
00000000000a9130 w _ZNSt18__moneypunct_cacheIwLb1EED0Ev
00000000000a9150 w _ZNSt18__moneypunct_cacheIwLb0EED2Ev
00000000000a91b0 w _ZNSt18__moneypunct_cacheIwLb0EED0Ev
00000000000a91d0 T _ZNSt10money_base20_S_construct_patternEccc
00000000000a93c0 T _ZNSt10moneypunctIcLb1EE24_M_initialize_moneypunctEP15__locale_structPKc
00000000000a9920 T _ZNSt10moneypunctIcLb0EE24_M_initialize_moneypunctEP15__locale_structPKc
00000000000a9e80 T _ZNSt10moneypunctIcLb1EED1Ev
00000000000a9f50 T _ZNSt10moneypunctIcLb1EED0Ev
00000000000a9f70 T _ZNSt10moneypunctIcLb0EED1Ev
00000000000aa040 T _ZNSt10moneypunctIcLb0EED0Ev
00000000000aa060 T _ZNSt10moneypunctIwLb1EE24_M_initialize_moneypunctEP15__locale_structPKc
00000000000aa670 T _ZNSt10moneypunctIwLb0EE24_M_initialize_moneypunctEP15__locale_structPKc
00000000000aac80 T _ZNSt10moneypunctIwLb1EED2Ev
00000000000aad50 T _ZNSt10moneypunctIwLb1EED0Ev
00000000000aad70 T _ZNSt10moneypunctIwLb0EED1Ev
00000000000aae40 T _ZNSt10moneypunctIwLb0EED0Ev
00000000000aae60 w _ZNSt16__numpunct_cacheIcED1Ev
00000000000aaeb0 w _ZNSt16__numpunct_cacheIcED0Ev
00000000000aaed0 w _ZNSt16__numpunct_cacheIwED2Ev
00000000000aaf20 w _ZNSt16__numpunct_cacheIwED0Ev
00000000000aaf40 T _ZNSt8numpunctIcE22_M_initialize_numpunctEP15__locale_struct
00000000000ab170 T _ZNSt8numpunctIcED1Ev
00000000000ab1e0 T _ZNSt8numpunctIcED0Ev
00000000000ab200 T _ZNSt8numpunctIwE22_M_initialize_numpunctEP15__locale_struct
00000000000ab430 T _ZNSt8numpunctIwED2Ev
00000000000ab4a0 T _ZNSt8numpunctIwED0Ev
00000000000ab4c0 T _ZN9__gnu_cxx18__exchange_and_addEPVii
00000000000ab4d0 T _ZN9__gnu_cxx12__atomic_addEPVii
00000000000ab4e0 T _ZNKSt7codecvtIwc11__mbstate_tE6do_outERS0_PKwS4_RS4_PcS6_RS6_
00000000000ab740 T _ZNKSt7codecvtIwc11__mbstate_tE5do_inERS0_PKcS4_RS4_PwS6_RS6_
00000000000ab970 T _ZNKSt7codecvtIwc11__mbstate_tE11do_encodingEv
00000000000ab9b0 T _ZNKSt7codecvtIwc11__mbstate_tE13do_max_lengthEv
00000000000ab9e0 T _ZNKSt7codecvtIwc11__mbstate_tE9do_lengthERS0_PKcS4_m
00000000000abbb0 T _ZNKSt7__cxx117collateIcE10_M_compareEPKcS3_
00000000000abbe0 T _ZNKSt7__cxx117collateIcE12_M_transformEPcPKcm
00000000000abc00 T _ZNKSt7__cxx117collateIwE10_M_compareEPKwS3_
00000000000abc30 T _ZNKSt7__cxx117collateIwE12_M_transformEPwPKwm
00000000000abe60 T _ZNKSt7__cxx118messagesIcE7do_openERKNS_12basic_stringIcSt11char_traitsIcESaIcEEERKSt6locale
00000000000ac1b0 T _ZNKSt7__cxx118messagesIcE6do_getEiiiRKNS_12basic_stringIcSt11char_traitsIcESaIcEEE
00000000000ac3c0 T _ZNKSt7__cxx118messagesIwE7do_openERKNS_12basic_stringIcSt11char_traitsIcESaIcEEERKSt6locale
00000000000ac710 T _ZNKSt7__cxx118messagesIcE8do_closeEi
00000000000ac8d0 T _ZNKSt7__cxx118messagesIwE6do_getEiiiRKNS_12basic_stringIwSt11char_traitsIwESaIwEEE
00000000000acbe0 T _ZNSt7__cxx1110moneypunctIcLb1EE24_M_initialize_moneypunctEP15__locale_structPKc
00000000000ad140 T _ZNSt7__cxx1110moneypunctIcLb0EE24_M_initialize_moneypunctEP15__locale_structPKc
00000000000ad6a0 T _ZNSt7__cxx1110moneypunctIcLb1EED1Ev
00000000000ad770 T _ZNSt7__cxx1110moneypunctIcLb1EED0Ev
00000000000ad790 T _ZNSt7__cxx1110moneypunctIcLb0EED2Ev
00000000000ad860 T _ZNSt7__cxx1110moneypunctIcLb0EED0Ev
00000000000ad880 T _ZNSt7__cxx1110moneypunctIwLb1EE24_M_initialize_moneypunctEP15__locale_structPKc
00000000000ade90 T _ZNSt7__cxx1110moneypunctIwLb0EE24_M_initialize_moneypunctEP15__locale_structPKc
00000000000ae4a0 T _ZNSt7__cxx1110moneypunctIwLb1EED2Ev
00000000000ae570 T _ZNSt7__cxx1110moneypunctIwLb1EED0Ev
00000000000ae590 T _ZNSt7__cxx1110moneypunctIwLb0EED2Ev
00000000000ae660 T _ZNSt7__cxx1110moneypunctIwLb0EED0Ev
00000000000ae680 T _ZNSt7__cxx118numpunctIcE22_M_initialize_numpunctEP15__locale_struct
00000000000ae8b0 T _ZNSt7__cxx118numpunctIcED1Ev
00000000000ae920 T _ZNSt7__cxx118numpunctIcED0Ev
00000000000ae940 T _ZNSt7__cxx118numpunctIwE22_M_initialize_numpunctEP15__locale_struct
00000000000aeb70 T _ZNSt7__cxx118numpunctIwED2Ev
00000000000aebe0 T _ZNSt7__cxx118numpunctIwED0Ev
00000000000aec00 T _ZNKSt11__timepunctIcE6_M_putEPcmPKcPK2tm
00000000000aec30 T _ZNSt11__timepunctIcE23_M_initialize_timepunctEP15__locale_struct
00000000000af590 T _ZNKSt11__timepunctIwE6_M_putEPwmPKwPK2tm
00000000000af5c0 T _ZNSt11__timepunctIwE23_M_initialize_timepunctEP15__locale_struct
00000000000b0060 T _ZNSt12__basic_fileIcEC2EP15pthread_mutex_t
00000000000b0070 T _ZNKSt12__basic_fileIcE7is_openEv
00000000000b0080 T _ZNSt12__basic_fileIcE8sys_openEiSt13_Ios_Openmode
00000000000b00f0 T _ZNSt12__basic_fileIcE4openEPKcSt13_Ios_Openmodei
00000000000b0140 T _ZNSt12__basic_fileIcE2fdEv
00000000000b0150 T _ZNSt12__basic_fileIcE4fileEv
00000000000b0160 T _ZNSt12__basic_fileIcE5closeEv
00000000000b01d0 T _ZNSt12__basic_fileIcED2Ev
00000000000b01e0 T _ZNSt12__basic_fileIcE6xsgetnEPcl
00000000000b0230 T _ZNSt12__basic_fileIcE6xsputnEPKcl
00000000000b0260 T _ZNSt12__basic_fileIcE8xsputn_2EPKclS2_l
00000000000b0340 T _ZNSt12__basic_fileIcE7seekoffElSt12_Ios_Seekdir
00000000000b0370 T _ZNSt12__basic_fileIcE4syncEv
00000000000b0380 T _ZNSt12__basic_fileIcE8sys_openEP8_IO_FILESt13_Ios_Openmode
00000000000b03e0 T _ZNSt12__basic_fileIcE9showmanycEv
00000000000b04e0 T _ZSt14__convert_to_vIfEvPKcRT_RSt12_Ios_IostateRKP15__locale_struct
00000000000b0590 T _ZSt14__convert_to_vIdEvPKcRT_RSt12_Ios_IostateRKP15__locale_struct
00000000000b0630 T _ZSt14__convert_to_vIeEvPKcRT_RSt12_Ios_IostateRKP15__locale_struct
00000000000b06f0 T _ZNSt6locale5facet18_S_create_c_localeERP15__locale_structPKcS2_
00000000000b0720 T _ZNSt6locale5facet19_S_destroy_c_localeERP15__locale_struct
00000000000b0750 T _ZNSt6locale5facet17_S_clone_c_localeERP15__locale_struct
00000000000b07c0 w _ZNSaIcEC1Ev
00000000000b07d0 w _ZNSaIcEC1ERKS_
00000000000b07e0 w _ZNSaIcED1Ev
00000000000b07f0 w _ZNSaIwEC2Ev
00000000000b0800 w _ZNSaIwEC1ERKS_
00000000000b0810 w _ZNSaIwED2Ev
00000000000b0820 w _ZNKSt5ctypeIcE8do_widenEc
00000000000b0830 w _ZStlsIcSt11char_traitsIcESaIcEERSt13basic_ostreamIT_T0_ES7_RKNSt7__cxx1112basic_stringIS4_S5_T1_EE
00000000000b0840 w _ZSt7getlineIcSt11char_traitsIcESaIcEERSt13basic_istreamIT_T0_ES7_RNSt7__cxx1112basic_stringIS4_S5_T1_EE
00000000000b08c0 w _ZStrsIwSt11char_traitsIwESaIwEERSt13basic_istreamIT_T0_ES7_RNSt7__cxx1112basic_stringIS4_S5_T1_EE
00000000000b0c40 w _ZStlsIwSt11char_traitsIwESaIwEERSt13basic_ostreamIT_T0_ES7_RKNSt7__cxx1112basic_stringIS4_S5_T1_EE
00000000000b0c50 w _ZSt7getlineIwSt11char_traitsIwESaIwEERSt13basic_istreamIT_T0_ES7_RNSt7__cxx1112basic_stringIS4_S5_T1_EE
00000000000b0ca0 w _ZNSt7__cxx1112basic_stringIcSt11char_traitsIcESaIcEE5eraseEN9__gnu_cxx17__normal_iteratorIPcS4_EE
00000000000b0cd0 w _ZNSt7__cxx1112basic_stringIcSt11char_traitsIcESaIcEE5eraseEN9__gnu_cxx17__normal_iteratorIPcS4_EES8_
00000000000b0d00 w _ZNSt7__cxx1112basic_stringIcSt11char_traitsIcESaIcEE6insertEN9__gnu_cxx17__normal_iteratorIPcS4_EEmc
00000000000b0d20 w _ZNSt7__cxx1112basic_stringIcSt11char_traitsIcESaIcEE6insertIN9__gnu_cxx17__normal_iteratorIPcS4_EEEEvS9_T_SA_
00000000000b0d60 w _ZNSt7__cxx1112basic_stringIcSt11char_traitsIcESaIcEE6insertEN9__gnu_cxx17__normal_iteratorIPcS4_EEc
00000000000b0d90 w _ZNSt7__cxx1112basic_stringIcSt11char_traitsIcESaIcEE7replaceEN9__gnu_cxx17__normal_iteratorIPcS4_EES8_RKS4_
00000000000b0de0 w _ZNSt7__cxx1112basic_stringIcSt11char_traitsIcESaIcEE7replaceEN9__gnu_cxx17__normal_iteratorIPcS4_EES8_PKcm
00000000000b0e30 w _ZNSt7__cxx1112basic_stringIcSt11char_traitsIcESaIcEE7replaceEN9__gnu_cxx17__normal_iteratorIPcS4_EES8_PKc
00000000000b0eb0 w _ZNSt7__cxx1112basic_stringIcSt11char_traitsIcESaIcEE7replaceEN9__gnu_cxx17__normal_iteratorIPcS4_EES8_mc
00000000000b0ec0 w _ZNSt7__cxx1112basic_stringIcSt11char_traitsIcESaIcEE7replaceEN9__gnu_cxx17__normal_iteratorIPcS4_EES8_S7_S7_
00000000000b0f10 w _ZNSt7__cxx1112basic_stringIcSt11char_traitsIcESaIcEE7replaceEN9__gnu_cxx17__normal_iteratorIPcS4_EES8_PKcSA_
00000000000b0f60 w _ZNSt7__cxx1112basic_stringIcSt11char_traitsIcESaIcEE7replaceEN9__gnu_cxx17__normal_iteratorIPcS4_EES8_S8_S8_
00000000000b0fb0 w _ZNSt7__cxx1112basic_stringIcSt11char_traitsIcESaIcEE7replaceEN9__gnu_cxx17__normal_iteratorIPcS4_EES8_NS6_IPKcS4_EESB_
00000000000b1000 w _ZNSt7__cxx1112basic_stringIwSt11char_traitsIwESaIwEE5eraseEN9__gnu_cxx17__normal_iteratorIPwS4_EE
00000000000b1030 w _ZNSt7__cxx1112basic_stringIwSt11char_traitsIwESaIwEE5eraseEN9__gnu_cxx17__normal_iteratorIPwS4_EES8_
00000000000b1060 w _ZNSt7__cxx1112basic_stringIwSt11char_traitsIwESaIwEE6insertEN9__gnu_cxx17__normal_iteratorIPwS4_EEmw
00000000000b1080 w _ZNSt7__cxx1112basic_stringIwSt11char_traitsIwESaIwEE6insertIN9__gnu_cxx17__normal_iteratorIPwS4_EEEEvS9_T_SA_
00000000000b10c0 w _ZNSt7__cxx1112basic_stringIwSt11char_traitsIwESaIwEE6insertEN9__gnu_cxx17__normal_iteratorIPwS4_EEw
00000000000b1100 w _ZNSt7__cxx1112basic_stringIwSt11char_traitsIwESaIwEE7replaceEN9__gnu_cxx17__normal_iteratorIPwS4_EES8_RKS4_
00000000000b1160 w _ZNSt7__cxx1112basic_stringIwSt11char_traitsIwESaIwEE7replaceEN9__gnu_cxx17__normal_iteratorIPwS4_EES8_PKwm
00000000000b11b0 w _ZNSt7__cxx1112basic_stringIwSt11char_traitsIwESaIwEE7replaceEN9__gnu_cxx17__normal_iteratorIPwS4_EES8_PKw
00000000000b1230 w _ZNSt7__cxx1112basic_stringIwSt11char_traitsIwESaIwEE7replaceEN9__gnu_cxx17__normal_iteratorIPwS4_EES8_mw
00000000000b1250 w _ZNSt7__cxx1112basic_stringIwSt11char_traitsIwESaIwEE7replaceEN9__gnu_cxx17__normal_iteratorIPwS4_EES8_S7_S7_
00000000000b12b0 w _ZNSt7__cxx1112basic_stringIwSt11char_traitsIwESaIwEE7replaceEN9__gnu_cxx17__normal_iteratorIPwS4_EES8_PKwSA_
00000000000b1310 w _ZNSt7__cxx1112basic_stringIwSt11char_traitsIwESaIwEE7replaceEN9__gnu_cxx17__normal_iteratorIPwS4_EES8_S8_S8_
00000000000b1370 w _ZNSt7__cxx1112basic_stringIwSt11char_traitsIwESaIwEE7replaceEN9__gnu_cxx17__normal_iteratorIPwS4_EES8_NS6_IPKwS4_EESB_
00000000000b13d0 T _ZSt17__verify_groupingPKcmRKNSt7__cxx1112basic_stringIcSt11char_traitsIcESaIcEEE
00000000000b1400 T _ZN14__gnu_parallel9_Settings3getEv
00000000000b1410 T _ZN14__gnu_parallel9_Settings3setERS0_
00000000000b1430 T _ZNSt6chrono3_V212system_clock3nowEv
00000000000b1480 T _ZNSt6chrono3_V212steady_clock3nowEv
00000000000b1690 T _ZNKSt20__codecvt_utf16_baseIDsE11do_encodingEv
00000000000b16a0 T _ZNKSt20__codecvt_utf16_baseIDiE13do_max_lengthEv
00000000000b16b0 T _ZNKSt20__codecvt_utf16_baseIDsE10do_unshiftER11__mbstate_tPcS3_RS3_
00000000000b16c0 T _ZNKSt20__codecvt_utf16_baseIDiE11do_encodingEv
00000000000b16d0 T _ZNKSt25__codecvt_utf8_utf16_baseIDsE16do_always_noconvEv
00000000000b16e0 T _ZNKSt25__codecvt_utf8_utf16_baseIwE13do_max_lengthEv
00000000000b16f0 T _ZNSt7codecvtIDsc11__mbstate_tED2Ev
00000000000b1710 T _ZNSt7codecvtIDsc11__mbstate_tED0Ev
00000000000b1730 T _ZNSt19__codecvt_utf8_baseIDsED2Ev
00000000000b1750 T _ZNSt19__codecvt_utf8_baseIDsED0Ev
00000000000b1770 T _ZNSt20__codecvt_utf16_baseIDsED2Ev
00000000000b1790 T _ZNSt20__codecvt_utf16_baseIDsED0Ev
00000000000b17b0 T _ZNSt25__codecvt_utf8_utf16_baseIDsED1Ev
00000000000b17d0 T _ZNSt25__codecvt_utf8_utf16_baseIDsED0Ev
00000000000b17f0 T _ZNSt7codecvtIDic11__mbstate_tED2Ev
00000000000b1810 T _ZNSt7codecvtIDic11__mbstate_tED0Ev
00000000000b1830 T _ZNSt19__codecvt_utf8_baseIDiED2Ev
00000000000b1850 T _ZNSt19__codecvt_utf8_baseIDiED0Ev
00000000000b1870 T _ZNSt20__codecvt_utf16_baseIDiED2Ev
00000000000b1890 T _ZNSt20__codecvt_utf16_baseIDiED0Ev
00000000000b18b0 T _ZNSt25__codecvt_utf8_utf16_baseIDiED1Ev
00000000000b18d0 T _ZNSt25__codecvt_utf8_utf16_baseIDiED0Ev
00000000000b1940 T _ZNKSt20__codecvt_utf16_baseIDsE6do_outER11__mbstate_tPKDsS4_RS4_PcS6_RS6_
00000000000b1b60 T _ZNSt19__codecvt_utf8_baseIwED2Ev
00000000000b1b80 T _ZNSt19__codecvt_utf8_baseIwED0Ev
00000000000b1ba0 T _ZNSt20__codecvt_utf16_baseIwED1Ev
00000000000b1bc0 T _ZNSt20__codecvt_utf16_baseIwED0Ev
00000000000b1be0 T _ZNSt25__codecvt_utf8_utf16_baseIwED1Ev
00000000000b1c00 T _ZNSt25__codecvt_utf8_utf16_baseIwED0Ev
00000000000b1c70 T _ZNKSt20__codecvt_utf16_baseIDiE5do_inER11__mbstate_tPKcS4_RS4_PDiS6_RS6_
00000000000b1e30 T _ZNKSt20__codecvt_utf16_baseIDiE9do_lengthER11__mbstate_tPKcS4_m
00000000000b1e50 T _ZNKSt20__codecvt_utf16_baseIwE9do_lengthER11__mbstate_tPKcS4_m
00000000000b1e70 T _ZNKSt20__codecvt_utf16_baseIDsE5do_inER11__mbstate_tPKcS4_RS4_PDsS6_RS6_
00000000000b1fb0 T _ZNKSt20__codecvt_utf16_baseIDsE9do_lengthER11__mbstate_tPKcS4_m
00000000000b21c0 T _ZNKSt25__codecvt_utf8_utf16_baseIDiE6do_outER11__mbstate_tPKDiS4_RS4_PcS6_RS6_
00000000000b22f0 T _ZNKSt25__codecvt_utf8_utf16_baseIwE6do_outER11__mbstate_tPKwS4_RS4_PcS6_RS6_
00000000000b24f0 T _ZNKSt19__codecvt_utf8_baseIDiE6do_outER11__mbstate_tPKDiS4_RS4_PcS6_RS6_
00000000000b2570 T _ZNKSt19__codecvt_utf8_baseIwE6do_outER11__mbstate_tPKwS4_RS4_PcS6_RS6_
00000000000b25f0 T _ZNKSt20__codecvt_utf16_baseIwE6do_outER11__mbstate_tPKwS4_RS4_PcS6_RS6_
00000000000b2670 T _ZNKSt7codecvtIDic11__mbstate_tE6do_outERS0_PKDiS4_RS4_PcS6_RS6_
00000000000b27c0 T _ZNKSt19__codecvt_utf8_baseIDsE6do_outER11__mbstate_tPKDsS4_RS4_PcS6_RS6_
00000000000b2860 T _ZNKSt7codecvtIDsc11__mbstate_tE6do_outERS0_PKDsS4_RS4_PcS6_RS6_
00000000000b2970 T _ZNKSt20__codecvt_utf16_baseIDiE6do_outER11__mbstate_tPKDiS4_RS4_PcS6_RS6_
00000000000b2b80 T _ZNKSt7codecvtIDsc11__mbstate_tE5do_inERS0_PKcS4_RS4_PDsS6_RS6_
00000000000b2c00 T _ZNKSt25__codecvt_utf8_utf16_baseIDsE5do_inER11__mbstate_tPKcS4_RS4_PDsS6_RS6_
00000000000b2c80 T _ZNKSt19__codecvt_utf8_baseIDsE5do_inER11__mbstate_tPKcS4_RS4_PDsS6_RS6_
00000000000b2d10 T _ZNKSt25__codecvt_utf8_utf16_baseIDsE6do_outER11__mbstate_tPKDsS4_RS4_PcS6_RS6_
00000000000b2da0 T _ZNKSt19__codecvt_utf8_baseIDsE9do_lengthER11__mbstate_tPKcS4_m
00000000000b2e90 T _ZNKSt25__codecvt_utf8_utf16_baseIwE5do_inER11__mbstate_tPKcS4_RS4_PwS6_RS6_
00000000000b3070 T _ZNKSt25__codecvt_utf8_utf16_baseIDiE5do_inER11__mbstate_tPKcS4_RS4_PDiS6_RS6_
00000000000b3300 T _ZNKSt7codecvtIDic11__mbstate_tE9do_lengthERS0_PKcS4_m
00000000000b3320 T _ZNKSt19__codecvt_utf8_baseIDiE9do_lengthER11__mbstate_tPKcS4_m
00000000000b3340 T _ZNKSt19__codecvt_utf8_baseIwE9do_lengthER11__mbstate_tPKcS4_m
00000000000b3460 T _ZNKSt7codecvtIDsc11__mbstate_tE9do_lengthERS0_PKcS4_m
00000000000b3480 T _ZNKSt25__codecvt_utf8_utf16_baseIDsE9do_lengthER11__mbstate_tPKcS4_m
00000000000b34a0 T _ZNKSt25__codecvt_utf8_utf16_baseIDiE9do_lengthER11__mbstate_tPKcS4_m
00000000000b34c0 T _ZNKSt25__codecvt_utf8_utf16_baseIwE9do_lengthER11__mbstate_tPKcS4_m
00000000000b35e0 T _ZNKSt7codecvtIDic11__mbstate_tE5do_inERS0_PKcS4_RS4_PDiS6_RS6_
00000000000b3660 T _ZNKSt19__codecvt_utf8_baseIDiE5do_inER11__mbstate_tPKcS4_RS4_PDiS6_RS6_
00000000000b36e0 T _ZNKSt19__codecvt_utf8_baseIwE5do_inER11__mbstate_tPKcS4_RS4_PwS6_RS6_
00000000000b3760 T _ZNKSt20__codecvt_utf16_baseIwE5do_inER11__mbstate_tPKcS4_RS4_PwS6_RS6_
00000000000b38f0 T _ZNSt18condition_variableC2Ev
00000000000b3900 T _ZNSt18condition_variableD1Ev
00000000000b3910 T _ZNSt18condition_variable4waitERSt11unique_lockISt5mutexE
00000000000b3930 T _ZNSt18condition_variable10notify_oneEv
00000000000b3950 T _ZNSt18condition_variable10notify_allEv
00000000000b39f0 T _ZSt25notify_all_at_thread_exitRSt18condition_variableSt11unique_lockISt5mutexE
00000000000b3a50 T _ZNSt11logic_errorC2ERKS_
00000000000b3a70 T _ZNSt11logic_erroraSERKS_
00000000000b3a90 T _ZNSt13runtime_errorC2ERKS_
00000000000b3ab0 T _ZNSt13runtime_erroraSERKS_
00000000000b3ad0 T _ZNSt11logic_errorC2EPKc
00000000000b3b40 T _ZNSt12domain_errorC2EPKc
00000000000b3b60 T _ZNSt16invalid_argumentC2EPKc
00000000000b3b80 T _ZNSt12length_errorC2EPKc
00000000000b3ba0 T _ZNSt12out_of_rangeC1EPKc
00000000000b3bc0 T _ZNSt13runtime_errorC1EPKc
00000000000b3c30 T _ZNSt11range_errorC2EPKc
00000000000b3c50 T _ZNSt14overflow_errorC2EPKc
00000000000b3c70 T _ZNSt15underflow_errorC2EPKc
00000000000b3cd0 T _ZNKSt3_V214error_category10_M_messageEi
00000000000b3dc0 w _ZNKSt5ctypeIcE9do_narrowEcc
00000000000b3dd0 T _ZNSt5ctypeIcED2Ev
00000000000b3e10 T _ZNSt5ctypeIwED2Ev
00000000000b3e50 T _ZNSt12ctype_bynameIwED2Ev
00000000000b3e70 T _ZNSt5ctypeIcED0Ev
00000000000b3e90 T _ZNSt5ctypeIwED0Ev
00000000000b3eb0 T _ZNSt12ctype_bynameIwED0Ev
00000000000b3ed0 w _ZNKSt5ctypeIcE9do_narrowEPKcS2_cPc
00000000000b3ef0 w _ZNKSt5ctypeIcE8do_widenEPKcS2_Pc
00000000000b3f10 T _ZNKSt5ctypeIcE14_M_narrow_initEv
00000000000b4040 T _ZNKSt5ctypeIcE13_M_widen_initEv
00000000000b4120 T _ZNSt5ctypeIwEC2Em
00000000000b4180 T _ZNSt5ctypeIwEC2EP15__locale_structm
00000000000b41d0 T _ZNSt12ctype_bynameIwEC1EPKcm
00000000000b4430 T _ZN11__gnu_debug19_Safe_sequence_base12_M_get_mutexEv
00000000000b4460 T _ZN11__gnu_debug19_Safe_sequence_base22_M_revalidate_singularEv
00000000000b4520 T _ZN11__gnu_debug19_Safe_sequence_base7_M_swapERS0_
00000000000b48a0 T _ZN11__gnu_debug19_Safe_iterator_base16_M_detach_singleEv
00000000000b48c0 T _ZN11__gnu_debug19_Safe_iterator_base16_M_attach_singleEPNS_19_Safe_sequence_baseEb
00000000000b4900 T _ZN11__gnu_debug19_Safe_sequence_base13_M_detach_allEv
00000000000b49f0 T _ZN11__gnu_debug19_Safe_iterator_base9_M_detachEv
00000000000b4a10 T _ZN11__gnu_debug19_Safe_iterator_base9_M_attachEPNS_19_Safe_sequence_baseEb
00000000000b4a50 T _ZNK11__gnu_debug19_Safe_iterator_base11_M_singularEv
00000000000b4a70 T _ZN11__gnu_debug19_Safe_sequence_base18_M_detach_singularEv
00000000000b4b70 T _ZNK11__gnu_debug19_Safe_iterator_base14_M_can_compareERKS0_
00000000000b4bb0 T _ZN11__gnu_debug19_Safe_iterator_base12_M_get_mutexEv
00000000000b4bf0 T _ZN11__gnu_debug30_Safe_unordered_container_base13_M_detach_allEv
00000000000b4d30 T _ZN11__gnu_debug30_Safe_unordered_container_base7_M_swapERS0_
00000000000b5090 T _ZN11__gnu_debug25_Safe_local_iterator_base9_M_detachEv
00000000000b50c0 T _ZN11__gnu_debug25_Safe_local_iterator_base9_M_attachEPNS_19_Safe_sequence_baseEb
00000000000b5110 T _ZNK11__gnu_debug16_Error_formatter10_M_messageENS_13_Debug_msg_idE
00000000000b5130 T _ZNK11__gnu_debug16_Error_formatter13_M_print_wordEPKc
00000000000b52b0 T _ZNK11__gnu_debug16_Error_formatter17_M_get_max_lengthEv
00000000000b5350 T _ZNK11__gnu_debug16_Error_formatter10_Parameter14_M_print_fieldEPKS0_PKc
00000000000b57c0 T _ZNK11__gnu_debug16_Error_formatter15_M_print_stringEPKc
00000000000b5b80 T _ZNK11__gnu_debug16_Error_formatter10_Parameter20_M_print_descriptionEPKS0_
00000000000b5e40 T _ZNK11__gnu_debug16_Error_formatter8_M_errorEv
00000000000b6010 T _ZSt21__throw_bad_exceptionv
00000000000b6050 T _ZSt17__throw_bad_allocv
00000000000b6090 T _ZSt16__throw_bad_castv
00000000000b60d0 T _ZSt18__throw_bad_typeidv
00000000000b6110 T _ZSt19__throw_logic_errorPKc
00000000000b6170 T _ZSt20__throw_domain_errorPKc
00000000000b61d0 T _ZSt24__throw_invalid_argumentPKc
00000000000b6230 T _ZSt20__throw_length_errorPKc
00000000000b6290 T _ZSt20__throw_out_of_rangePKc
00000000000b62f0 T _ZSt24__throw_out_of_range_fmtPKcz
00000000000b6570 T _ZSt21__throw_runtime_errorPKc
00000000000b65d0 T _ZSt19__throw_range_errorPKc
00000000000b6630 T _ZSt22__throw_overflow_errorPKc
00000000000b6690 T _ZSt23__throw_underflow_errorPKc
00000000000b66f0 T _ZSt19__throw_ios_failurePKc
00000000000b6770 T _ZSt20__throw_system_errori
00000000000b6830 T _ZSt20__throw_future_errori
00000000000b6880 T _ZSt25__throw_bad_function_callv
00000000000b68c0 T _ZSt19__throw_regex_errorNSt15regex_constants10error_typeE
00000000000b6910 T _ZNKSt17bad_function_call4whatEv
00000000000b6920 T _ZNSt17bad_function_callD2Ev
00000000000b6940 T _ZNSt17bad_function_callD0Ev
00000000000b6960 T _ZNSt28__atomic_futex_unsigned_base19_M_futex_wait_untilEPjjbNSt6chrono8durationIlSt5ratioILl1ELl1EEEENS2_IlS3_ILl1ELl1000000000EEEE
00000000000b6a60 T _ZNSt28__atomic_futex_unsigned_base19_M_futex_notify_allEPj
00000000000b6af0 T _ZNSt12future_errorD1Ev
00000000000b6b10 T _ZNSt12future_errorD0Ev
00000000000b6c30 T _ZSt15future_categoryv
00000000000b6c90 T _ZNSt13__future_base12_Result_baseC1Ev
00000000000b6cb0 T _ZNSt13__future_base12_Result_baseD2Ev
00000000000b6cd0 T _ZNSt13__future_base12_Result_baseD0Ev
00000000000b6cf0 T _ZNSt13__future_base13_State_baseV211_Make_ready6_M_setEv
00000000000b6fa0 T _ZNKSt12future_error4whatEv
00000000000b6fb0 T _ZNKSt4hashIeEclEe
00000000000b7130 T _ZNKSt8__detail20_Prime_rehash_policy11_M_next_bktEm
00000000000b7280 T _ZNKSt8__detail20_Prime_rehash_policy14_M_need_rehashEmmm
00000000000b73f0 T _ZNSt8ios_baseC1Ev
00000000000b7490 T _ZNSt8ios_base6xallocEv
00000000000b74d0 T _ZNSt8ios_base17register_callbackEPFvNS_5eventERS_iEi
00000000000b7510 T _ZNSt8ios_base13_M_grow_wordsEib
00000000000b76d0 T _ZNSt8ios_base17_M_call_callbacksENS_5eventE
00000000000b7730 T _ZNSt8ios_base20_M_dispose_callbacksEv
00000000000b7790 T _ZNSt8ios_baseD2Ev
00000000000b77f0 T _ZNSt8ios_baseD0Ev
00000000000b7810 T _ZNSt8ios_base7_M_moveERS_
00000000000b7910 T _ZNSt8ios_base7_M_swapERS_
00000000000b7ac0 T __once_proxy
00000000000b7b50 T _ZNSt13random_device7_M_initERKNSt7__cxx1112basic_stringIcSt11char_traitsIcESaIcEEE
00000000000b7c00 T _ZNSt13random_device7_M_finiEv
00000000000b7c20 T _ZNSt13random_device9_M_getvalEv
00000000000b7d10 T _ZNSt13random_device14_M_init_pretr1ERKNSt7__cxx1112basic_stringIcSt11char_traitsIcESaIcEEE
00000000000b7f00 T _ZNSt13random_device16_M_getval_pretr1Ev
00000000000b7f10 T _ZNSt11regex_errorD1Ev
00000000000b7f30 T _ZNSt11regex_errorD0Ev
00000000000b7f50 T _ZNSt11regex_errorC2ENSt15regex_constants10error_typeE
00000000000b7f80 T _ZNKSt12bad_weak_ptr4whatEv
00000000000b7f90 T _ZNSt12bad_weak_ptrD2Ev
00000000000b7fb0 T _ZNSt12bad_weak_ptrD0Ev
00000000000b8070 T _ZNSt10_Sp_lockerC2EPKv
00000000000b8100 T _ZNSt10_Sp_lockerC1EPKvS1_
00000000000b81f0 T _ZNSt10_Sp_lockerD1Ev
00000000000b8610 T _ZNKSt3_V214error_category23default_error_conditionEi
00000000000b8620 T _ZNKSt3_V214error_category10equivalentERKSt10error_codei
00000000000b8640 T _ZNSt12system_errorD2Ev
00000000000b8660 T _ZNSt12system_errorD0Ev
00000000000b8680 T _ZNKSt3_V214error_category10_M_messageB5cxx11Ei
00000000000b8830 T _ZNKSt3_V214error_category10equivalentEiRKSt15error_condition
00000000000b8870 T _ZNSt3_V214error_categoryD2Ev
00000000000b88e0 T _ZNSt3_V214error_categoryD0Ev
00000000000b8900 T _ZNSt3_V215system_categoryEv
00000000000b8910 T _ZNSt3_V216generic_categoryEv
00000000000b8920 T _ZNKSt10error_code23default_error_conditionEv
00000000000b8b70 T _ZNSt6thread4joinEv
00000000000b8bb0 T _ZNSt6thread6detachEv
00000000000b8bf0 T _ZNSt6thread20hardware_concurrencyEv
00000000000b8c10 T _ZNSt11this_thread11__sleep_forENSt6chrono8durationIlSt5ratioILl1ELl1EEEENS1_IlS2_ILl1ELl1000000000EEEE
00000000000b8d60 T _ZNSt6thread15_M_start_threadESt10shared_ptrINS_10_Impl_baseEEPFvvE
00000000000b8e80 T _ZNSt6thread15_M_start_threadESt10shared_ptrINS_10_Impl_baseEE
00000000000ba1a0 T _ZNKSt6locale4nameEv
00000000000beeb0 T _ZNKSt3tr14hashINSt7__cxx1112basic_stringIcSt11char_traitsIcESaIcEEEEclES6_
00000000000bef00 T _ZNKSt3tr14hashINSt7__cxx1112basic_stringIwSt11char_traitsIwESaIwEEEEclES6_
00000000000befa0 T _ZNSt8ios_base7failureB5cxx11D1Ev
00000000000befc0 T _ZNSt8ios_base7failureB5cxx11D0Ev
00000000000befe0 T _ZNKSt8ios_base7failureB5cxx114whatEv
00000000000bf070 T _ZSt17iostream_categoryv
00000000000bf0d0 T _ZNSt8ios_base7failureB5cxx11C1ERKNSt7__cxx1112basic_stringIcSt11char_traitsIcESaIcEEE
00000000000bf440 T _ZNSt8ios_base7failureB5cxx11C2ERKNSt7__cxx1112basic_stringIcSt11char_traitsIcESaIcEEERKSt10error_code
00000000000bf7e0 T _ZNSt8ios_base7failureB5cxx11C1EPKcRKSt10error_code
00000000000c39a0 T _ZNSt11logic_errorC1ERKNSt7__cxx1112basic_stringIcSt11char_traitsIcESaIcEEE
00000000000c39e0 T _ZNSt12domain_errorC1ERKNSt7__cxx1112basic_stringIcSt11char_traitsIcESaIcEEE
00000000000c3a00 T _ZNSt16invalid_argumentC2ERKNSt7__cxx1112basic_stringIcSt11char_traitsIcESaIcEEE
00000000000c3a20 T _ZNSt12length_errorC2ERKNSt7__cxx1112basic_stringIcSt11char_traitsIcESaIcEEE
00000000000c3a40 T _ZNSt12out_of_rangeC2ERKNSt7__cxx1112basic_stringIcSt11char_traitsIcESaIcEEE
00000000000c3a60 T _ZNSt13runtime_errorC2ERKNSt7__cxx1112basic_stringIcSt11char_traitsIcESaIcEEE
00000000000c3aa0 T _ZNSt11range_errorC1ERKNSt7__cxx1112basic_stringIcSt11char_traitsIcESaIcEEE
00000000000c3ac0 T _ZNSt14overflow_errorC2ERKNSt7__cxx1112basic_stringIcSt11char_traitsIcESaIcEEE
00000000000c3ae0 T _ZNSt15underflow_errorC2ERKNSt7__cxx1112basic_stringIcSt11char_traitsIcESaIcEEE
00000000000c3b00 T _ZNSt5ctypeIcE13classic_tableEv
00000000000c3b30 T _ZNSt5ctypeIcEC2EP15__locale_structPKtbm
00000000000c3c20 T _ZNSt5ctypeIcEC1EPKtbm
00000000000c3d10 T _ZNKSt5ctypeIcE10do_toupperEc
00000000000c3d20 T _ZNKSt5ctypeIcE10do_toupperEPcPKc
00000000000c3d50 T _ZNKSt5ctypeIcE10do_tolowerEc
00000000000c3d60 T _ZNKSt5ctypeIcE10do_tolowerEPcPKc
00000000000c3d90 T _ZNSt12ctype_bynameIcED1Ev
00000000000c3db0 T _ZNSt12ctype_bynameIcED0Ev
00000000000c3dd0 T _ZNSt12ctype_bynameIcEC2EPKcm
00000000000c3e70 T _ZNKSt5ctypeIwE19_M_convert_to_wmaskEt
00000000000c3fc0 T _ZNKSt5ctypeIwE10do_toupperEw
00000000000c3fd0 T _ZNKSt5ctypeIwE10do_toupperEPwPKw
00000000000c4010 T _ZNKSt5ctypeIwE10do_tolowerEw
00000000000c4020 T _ZNKSt5ctypeIwE10do_tolowerEPwPKw
00000000000c4060 T _ZNKSt5ctypeIwE5do_isEtw
00000000000c4110 T _ZNKSt5ctypeIwE5do_isEPKwS2_Pt
00000000000c41b0 T _ZNKSt5ctypeIwE10do_scan_isEtPKwS2_
00000000000c4210 T _ZNKSt5ctypeIwE11do_scan_notEtPKwS2_
00000000000c4270 T _ZNKSt5ctypeIwE8do_widenEc
00000000000c4280 T _ZNKSt5ctypeIwE8do_widenEPKcS2_Pw
00000000000c42b0 T _ZNKSt5ctypeIwE9do_narrowEwc
00000000000c4310 T _ZNKSt5ctypeIwE9do_narrowEPKwS2_cPc
00000000000c4410 T _ZNSt5ctypeIwE19_M_initialize_ctypeEv
00000000000c4500 w _ZNSt13basic_filebufIcSt11char_traitsIcEE4openERKSsSt13_Ios_Openmode
00000000000c4510 w _ZNSt14basic_ifstreamIcSt11char_traitsIcEEC2ERKSsSt13_Ios_Openmode
00000000000c4600 w _ZNSt14basic_ifstreamIcSt11char_traitsIcEEC1ERKSsSt13_Ios_Openmode
00000000000c4780 w _ZNSt14basic_ifstreamIcSt11char_traitsIcEE4openERKSsSt13_Ios_Openmode
00000000000c47d0 w _ZNSt14basic_ofstreamIcSt11char_traitsIcEEC2ERKSsSt13_Ios_Openmode
00000000000c48b0 w _ZNSt14basic_ofstreamIcSt11char_traitsIcEEC1ERKSsSt13_Ios_Openmode
00000000000c4a30 w _ZNSt14basic_ofstreamIcSt11char_traitsIcEE4openERKSsSt13_Ios_Openmode
00000000000c4a80 w _ZNSt13basic_fstreamIcSt11char_traitsIcEEC2ERKSsSt13_Ios_Openmode
00000000000c4be0 w _ZNSt13basic_fstreamIcSt11char_traitsIcEEC1ERKSsSt13_Ios_Openmode
00000000000c4de0 w _ZNSt13basic_fstreamIcSt11char_traitsIcEE4openERKSsSt13_Ios_Openmode
00000000000c4e30 w _ZNSt13basic_filebufIwSt11char_traitsIwEE4openERKSsSt13_Ios_Openmode
00000000000c4e40 w _ZNSt14basic_ifstreamIwSt11char_traitsIwEEC2ERKSsSt13_Ios_Openmode
00000000000c4f30 w _ZNSt14basic_ifstreamIwSt11char_traitsIwEEC1ERKSsSt13_Ios_Openmode
00000000000c50c0 w _ZNSt14basic_ifstreamIwSt11char_traitsIwEE4openERKSsSt13_Ios_Openmode
00000000000c5110 w _ZNSt14basic_ofstreamIwSt11char_traitsIwEEC2ERKSsSt13_Ios_Openmode
00000000000c51f0 w _ZNSt14basic_ofstreamIwSt11char_traitsIwEEC1ERKSsSt13_Ios_Openmode
00000000000c5370 w _ZNSt14basic_ofstreamIwSt11char_traitsIwEE4openERKSsSt13_Ios_Openmode
00000000000c53c0 w _ZNSt13basic_fstreamIwSt11char_traitsIwEEC2ERKSsSt13_Ios_Openmode
00000000000c5520 w _ZNSt13basic_fstreamIwSt11char_traitsIwEEC1ERKSsSt13_Ios_Openmode
00000000000c5720 w _ZNSt13basic_fstreamIwSt11char_traitsIwEE4openERKSsSt13_Ios_Openmode
00000000000c5770 w _ZNSt15basic_stringbufIcSt11char_traitsIcESaIcEE9showmanycEv
00000000000c57a0 w _ZNSt15basic_stringbufIcSt11char_traitsIcESaIcEE9underflowEv
00000000000c57e0 w _ZNSt15basic_stringbufIcSt11char_traitsIcESaIcEE9pbackfailEi
00000000000c5840 w _ZNSt15basic_stringbufIwSt11char_traitsIwESaIwEE9showmanycEv
00000000000c5880 w _ZNSt15basic_stringbufIwSt11char_traitsIwESaIwEE9underflowEv
00000000000c58c0 w _ZNSt15basic_stringbufIwSt11char_traitsIwESaIwEE9pbackfailEj
00000000000c5920 w _ZNSt15basic_stringbufIcSt11char_traitsIcESaIcEED0Ev
00000000000c59e0 w _ZNSt15basic_stringbufIwSt11char_traitsIwESaIwEED0Ev
00000000000c5aa0 w _ZNSt19basic_ostringstreamIwSt11char_traitsIwESaIwEED0Ev
00000000000c5b90 w _ZTv0_n24_NSt19basic_ostringstreamIwSt11char_traitsIwESaIwEED0Ev
00000000000c5ba0 w _ZNSt18basic_stringstreamIwSt11char_traitsIwESaIwEED0Ev
00000000000c5c90 w _ZThn16_NSt18basic_stringstreamIwSt11char_traitsIwESaIwEED0Ev
00000000000c5ca0 w _ZTv0_n24_NSt18basic_stringstreamIwSt11char_traitsIwESaIwEED0Ev
00000000000c5cb0 w _ZNSt19basic_istringstreamIwSt11char_traitsIwESaIwEED0Ev
00000000000c5da0 w _ZTv0_n24_NSt19basic_istringstreamIwSt11char_traitsIwESaIwEED0Ev
00000000000c5db0 w _ZNSt19basic_istringstreamIcSt11char_traitsIcESaIcEED0Ev
00000000000c5ea0 w _ZTv0_n24_NSt19basic_istringstreamIcSt11char_traitsIcESaIcEED0Ev
00000000000c5eb0 w _ZNSt19basic_ostringstreamIcSt11char_traitsIcESaIcEED0Ev
00000000000c5fa0 w _ZTv0_n24_NSt19basic_ostringstreamIcSt11char_traitsIcESaIcEED0Ev
00000000000c5fb0 w _ZNSt18basic_stringstreamIcSt11char_traitsIcESaIcEED0Ev
00000000000c60a0 w _ZThn16_NSt18basic_stringstreamIcSt11char_traitsIcESaIcEED0Ev
00000000000c60b0 w _ZTv0_n24_NSt18basic_stringstreamIcSt11char_traitsIcESaIcEED0Ev
00000000000c60c0 w _ZNSt19basic_ostringstreamIwSt11char_traitsIwESaIwEED1Ev
00000000000c61a0 w _ZTv0_n24_NSt19basic_ostringstreamIwSt11char_traitsIwESaIwEED1Ev
00000000000c61b0 w _ZNSt19basic_ostringstreamIcSt11char_traitsIcESaIcEED1Ev
00000000000c6290 w _ZTv0_n24_NSt19basic_ostringstreamIcSt11char_traitsIcESaIcEED1Ev
00000000000c62a0 w _ZNSt19basic_istringstreamIcSt11char_traitsIcESaIcEED1Ev
00000000000c6380 w _ZTv0_n24_NSt19basic_istringstreamIcSt11char_traitsIcESaIcEED1Ev
00000000000c6390 w _ZNSt19basic_istringstreamIwSt11char_traitsIwESaIwEED1Ev
00000000000c6470 w _ZTv0_n24_NSt19basic_istringstreamIwSt11char_traitsIwESaIwEED1Ev
00000000000c6480 w _ZNSt15basic_stringbufIwSt11char_traitsIwESaIwEED1Ev
00000000000c6530 w _ZNSt15basic_stringbufIcSt11char_traitsIcESaIcEED1Ev
00000000000c65e0 w _ZNSt18basic_stringstreamIcSt11char_traitsIcESaIcEED1Ev
00000000000c66d0 w _ZThn16_NSt18basic_stringstreamIcSt11char_traitsIcESaIcEED1Ev
00000000000c66e0 w _ZTv0_n24_NSt18basic_stringstreamIcSt11char_traitsIcESaIcEED1Ev
00000000000c66f0 w _ZNSt18basic_stringstreamIwSt11char_traitsIwESaIwEED1Ev
00000000000c67e0 w _ZThn16_NSt18basic_stringstreamIwSt11char_traitsIwESaIwEED1Ev
00000000000c67f0 w _ZTv0_n24_NSt18basic_stringstreamIwSt11char_traitsIwESaIwEED1Ev
00000000000c6800 w _ZNSt15basic_stringbufIcSt11char_traitsIcESaIcEEC2ESt13_Ios_Openmode
00000000000c6880 w _ZNSt15basic_stringbufIcSt11char_traitsIcESaIcEE4swapERS3_
00000000000c6a30 w _ZNKSt15basic_stringbufIcSt11char_traitsIcESaIcEE3strEv
00000000000c6b90 w _ZNSt15basic_stringbufIcSt11char_traitsIcESaIcEE15_M_update_egptrEv
00000000000c6bd0 w _ZNSt15basic_stringbufIcSt11char_traitsIcESaIcEE8_M_pbumpEPcS4_l
00000000000c6c20 w _ZNSt15basic_stringbufIcSt11char_traitsIcESaIcEE7_M_syncEPcmm
00000000000c6cc0 w _ZNSt15basic_stringbufIcSt11char_traitsIcESaIcEE17_M_stringbuf_initESt13_Ios_Openmode
00000000000c6cf0 w _ZNSt15basic_stringbufIcSt11char_traitsIcESaIcEE6setbufEPcl
00000000000c6d40 w _ZNSt15basic_stringbufIcSt11char_traitsIcESaIcEEaSEOS3_
00000000000c6e20 w _ZNSt15basic_stringbufIcSt11char_traitsIcESaIcEE8overflowEi
00000000000c7050 w _ZNSt15basic_stringbufIcSt11char_traitsIcESaIcEEC1EOS3_
00000000000c70c0 w _ZNSt15basic_stringbufIcSt11char_traitsIcESaIcEE3strERKSs
00000000000c70f0 w _ZNSt15basic_stringbufIcSt11char_traitsIcESaIcEEC2ERKSsSt13_Ios_Openmode
00000000000c7210 w _ZNSt15basic_stringbufIcSt11char_traitsIcESaIcEE7seekoffElSt12_Ios_SeekdirSt13_Ios_Openmode
00000000000c73c0 w _ZNSt15basic_stringbufIcSt11char_traitsIcESaIcEE7seekposESt4fposI11__mbstate_tESt13_Ios_Openmode
00000000000c74d0 w _ZNSt19basic_istringstreamIcSt11char_traitsIcESaIcEEC2ESt13_Ios_Openmode
00000000000c75e0 w _ZNSt19basic_istringstreamIcSt11char_traitsIcESaIcEEC1ESt13_Ios_Openmode
00000000000c7740 w _ZNSt19basic_istringstreamIcSt11char_traitsIcESaIcEEC2ERKSsSt13_Ios_Openmode
00000000000c78f0 w _ZNSt19basic_istringstreamIcSt11char_traitsIcESaIcEEC1ERKSsSt13_Ios_Openmode
00000000000c7b00 w _ZNSt19basic_istringstreamIcSt11char_traitsIcESaIcEED2Ev
00000000000c7be0 w _ZNSt19basic_istringstreamIcSt11char_traitsIcESaIcEEC2EOS3_
00000000000c7d30 w _ZNSt19basic_istringstreamIcSt11char_traitsIcESaIcEEC1EOS3_
00000000000c7ec0 w _ZNSt19basic_istringstreamIcSt11char_traitsIcESaIcEEaSEOS3_
00000000000c8030 w _ZNSt19basic_istringstreamIcSt11char_traitsIcESaIcEE4swapERS3_
00000000000c8260 w _ZNKSt19basic_istringstreamIcSt11char_traitsIcESaIcEE5rdbufEv
00000000000c8270 w _ZNKSt19basic_istringstreamIcSt11char_traitsIcESaIcEE3strEv
00000000000c83d0 w _ZNSt19basic_istringstreamIcSt11char_traitsIcESaIcEE3strERKSs
00000000000c8410 w _ZNSt19basic_ostringstreamIcSt11char_traitsIcESaIcEEC2ESt13_Ios_Openmode
00000000000c8510 w _ZNSt19basic_ostringstreamIcSt11char_traitsIcESaIcEEC1ESt13_Ios_Openmode
00000000000c8660 w _ZNSt19basic_ostringstreamIcSt11char_traitsIcESaIcEEC2ERKSsSt13_Ios_Openmode
00000000000c8800 w _ZNSt19basic_ostringstreamIcSt11char_traitsIcESaIcEEC1ERKSsSt13_Ios_Openmode
00000000000c8a00 w _ZNSt19basic_ostringstreamIcSt11char_traitsIcESaIcEED2Ev
00000000000c8ae0 w _ZNSt19basic_ostringstreamIcSt11char_traitsIcESaIcEEC2EOS3_
00000000000c8c10 w _ZNSt19basic_ostringstreamIcSt11char_traitsIcESaIcEEC1EOS3_
00000000000c8d90 w _ZNSt19basic_ostringstreamIcSt11char_traitsIcESaIcEEaSEOS3_
00000000000c8ee0 w _ZNSt19basic_ostringstreamIcSt11char_traitsIcESaIcEE4swapERS3_
00000000000c9100 w _ZNKSt19basic_ostringstreamIcSt11char_traitsIcESaIcEE5rdbufEv
00000000000c9110 w _ZNKSt19basic_ostringstreamIcSt11char_traitsIcESaIcEE3strEv
00000000000c9270 w _ZNSt19basic_ostringstreamIcSt11char_traitsIcESaIcEE3strERKSs
00000000000c92b0 w _ZNSt18basic_stringstreamIcSt11char_traitsIcESaIcEEC2ESt13_Ios_Openmode
00000000000c9440 w _ZNSt18basic_stringstreamIcSt11char_traitsIcESaIcEEC1ESt13_Ios_Openmode
00000000000c95c0 w _ZNSt18basic_stringstreamIcSt11char_traitsIcESaIcEEC2ERKSsSt13_Ios_Openmode
00000000000c97f0 w _ZNSt18basic_stringstreamIcSt11char_traitsIcESaIcEEC1ERKSsSt13_Ios_Openmode
00000000000c9a10 w _ZNSt18basic_stringstreamIcSt11char_traitsIcESaIcEED2Ev
00000000000c9b30 w _ZNSt18basic_stringstreamIcSt11char_traitsIcESaIcEEC2EOS3_
00000000000c9cf0 w _ZNSt18basic_stringstreamIcSt11char_traitsIcESaIcEEC1EOS3_
00000000000c9e90 w _ZNSt18basic_stringstreamIcSt11char_traitsIcESaIcEEaSEOS3_
00000000000ca000 w _ZNSt18basic_stringstreamIcSt11char_traitsIcESaIcEE4swapERS3_
00000000000ca230 w _ZNKSt18basic_stringstreamIcSt11char_traitsIcESaIcEE5rdbufEv
00000000000ca240 w _ZNKSt18basic_stringstreamIcSt11char_traitsIcESaIcEE3strEv
00000000000ca3a0 w _ZNSt18basic_stringstreamIcSt11char_traitsIcESaIcEE3strERKSs
00000000000ca3e0 w _ZNSt15basic_stringbufIwSt11char_traitsIwESaIwEEC2ESt13_Ios_Openmode
00000000000ca460 w _ZNSt15basic_stringbufIwSt11char_traitsIwESaIwEE4swapERS3_
00000000000ca610 w _ZNKSt15basic_stringbufIwSt11char_traitsIwESaIwEE3strEv
00000000000ca770 w _ZNSt15basic_stringbufIwSt11char_traitsIwESaIwEE15_M_update_egptrEv
00000000000ca7b0 w _ZNSt15basic_stringbufIwSt11char_traitsIwESaIwEE8_M_pbumpEPwS4_l
00000000000ca7f0 w _ZNSt15basic_stringbufIwSt11char_traitsIwESaIwEE7_M_syncEPwmm
00000000000ca890 w _ZNSt15basic_stringbufIwSt11char_traitsIwESaIwEE17_M_stringbuf_initESt13_Ios_Openmode
00000000000ca8c0 w _ZNSt15basic_stringbufIwSt11char_traitsIwESaIwEE6setbufEPwl
00000000000ca910 w _ZNSt15basic_stringbufIwSt11char_traitsIwESaIwEEaSEOS3_
00000000000ca9f0 w _ZNSt15basic_stringbufIwSt11char_traitsIwESaIwEE8overflowEj
00000000000cac30 w _ZNSt15basic_stringbufIwSt11char_traitsIwESaIwEEC1EOS3_
00000000000caca0 w _ZNSt15basic_stringbufIwSt11char_traitsIwESaIwEE3strERKSbIwS1_S2_E
00000000000cacd0 w _ZNSt15basic_stringbufIwSt11char_traitsIwESaIwEEC2ERKSbIwS1_S2_ESt13_Ios_Openmode
00000000000cadf0 w _ZNSt15basic_stringbufIwSt11char_traitsIwESaIwEE7seekoffElSt12_Ios_SeekdirSt13_Ios_Openmode
00000000000cafa0 w _ZNSt15basic_stringbufIwSt11char_traitsIwESaIwEE7seekposESt4fposI11__mbstate_tESt13_Ios_Openmode
00000000000cb0b0 w _ZNSt19basic_istringstreamIwSt11char_traitsIwESaIwEEC2ESt13_Ios_Openmode
00000000000cb1c0 w _ZNSt19basic_istringstreamIwSt11char_traitsIwESaIwEEC1ESt13_Ios_Openmode
00000000000cb320 w _ZNSt19basic_istringstreamIwSt11char_traitsIwESaIwEEC2ERKSbIwS1_S2_ESt13_Ios_Openmode
00000000000cb4d0 w _ZNSt19basic_istringstreamIwSt11char_traitsIwESaIwEEC1ERKSbIwS1_S2_ESt13_Ios_Openmode
00000000000cb6e0 w _ZNSt19basic_istringstreamIwSt11char_traitsIwESaIwEED2Ev
00000000000cb7c0 w _ZNSt19basic_istringstreamIwSt11char_traitsIwESaIwEEC2EOS3_
00000000000cb910 w _ZNSt19basic_istringstreamIwSt11char_traitsIwESaIwEEC1EOS3_
00000000000cbaa0 w _ZNSt19basic_istringstreamIwSt11char_traitsIwESaIwEEaSEOS3_
00000000000cbc10 w _ZNSt19basic_istringstreamIwSt11char_traitsIwESaIwEE4swapERS3_
00000000000cbe40 w _ZNKSt19basic_istringstreamIwSt11char_traitsIwESaIwEE5rdbufEv
00000000000cbe50 w _ZNKSt19basic_istringstreamIwSt11char_traitsIwESaIwEE3strEv
00000000000cbfb0 w _ZNSt19basic_istringstreamIwSt11char_traitsIwESaIwEE3strERKSbIwS1_S2_E
00000000000cbff0 w _ZNSt19basic_ostringstreamIwSt11char_traitsIwESaIwEEC2ESt13_Ios_Openmode
00000000000cc0f0 w _ZNSt19basic_ostringstreamIwSt11char_traitsIwESaIwEEC1ESt13_Ios_Openmode
00000000000cc240 w _ZNSt19basic_ostringstreamIwSt11char_traitsIwESaIwEEC2ERKSbIwS1_S2_ESt13_Ios_Openmode
00000000000cc3e0 w _ZNSt19basic_ostringstreamIwSt11char_traitsIwESaIwEEC1ERKSbIwS1_S2_ESt13_Ios_Openmode
00000000000cc5e0 w _ZNSt19basic_ostringstreamIwSt11char_traitsIwESaIwEED2Ev
00000000000cc6c0 w _ZNSt19basic_ostringstreamIwSt11char_traitsIwESaIwEEC2EOS3_
00000000000cc7f0 w _ZNSt19basic_ostringstreamIwSt11char_traitsIwESaIwEEC1EOS3_
00000000000cc970 w _ZNSt19basic_ostringstreamIwSt11char_traitsIwESaIwEEaSEOS3_
00000000000ccac0 w _ZNSt19basic_ostringstreamIwSt11char_traitsIwESaIwEE4swapERS3_
00000000000ccce0 w _ZNKSt19basic_ostringstreamIwSt11char_traitsIwESaIwEE5rdbufEv
00000000000cccf0 w _ZNKSt19basic_ostringstreamIwSt11char_traitsIwESaIwEE3strEv
00000000000cce50 w _ZNSt19basic_ostringstreamIwSt11char_traitsIwESaIwEE3strERKSbIwS1_S2_E
00000000000cce90 w _ZNSt18basic_stringstreamIwSt11char_traitsIwESaIwEEC2ESt13_Ios_Openmode
00000000000cd020 w _ZNSt18basic_stringstreamIwSt11char_traitsIwESaIwEEC1ESt13_Ios_Openmode
00000000000cd1a0 w _ZNSt18basic_stringstreamIwSt11char_traitsIwESaIwEEC2ERKSbIwS1_S2_ESt13_Ios_Openmode
00000000000cd3d0 w _ZNSt18basic_stringstreamIwSt11char_traitsIwESaIwEEC1ERKSbIwS1_S2_ESt13_Ios_Openmode
00000000000cd600 w _ZNSt18basic_stringstreamIwSt11char_traitsIwESaIwEED2Ev
00000000000cd720 w _ZNSt18basic_stringstreamIwSt11char_traitsIwESaIwEEC2EOS3_
00000000000cd8e0 w _ZNSt18basic_stringstreamIwSt11char_traitsIwESaIwEEC1EOS3_
00000000000cda80 w _ZNSt18basic_stringstreamIwSt11char_traitsIwESaIwEEaSEOS3_
00000000000cdbf0 w _ZNSt18basic_stringstreamIwSt11char_traitsIwESaIwEE4swapERS3_
00000000000cde20 w _ZNKSt18basic_stringstreamIwSt11char_traitsIwESaIwEE5rdbufEv
00000000000cde30 w _ZNKSt18basic_stringstreamIwSt11char_traitsIwESaIwEE3strEv
00000000000cdf90 w _ZNSt18basic_stringstreamIwSt11char_traitsIwESaIwEE3strERKSbIwS1_S2_E
00000000000cdfd0 w _ZNKSs7_M_dataEv
00000000000cdfe0 w _ZNSs7_M_dataEPc
00000000000cdff0 w _ZNKSs6_M_repEv
00000000000ce000 w _ZNKSs9_M_ibeginEv
00000000000ce010 w _ZNKSs7_M_iendEv
00000000000ce020 w _ZNKSs8_M_checkEmPKc
00000000000ce050 w _ZNKSs8_M_limitEmm
00000000000ce070 w _ZNSs13_S_copy_charsEPcN9__gnu_cxx17__normal_iteratorIS_SsEES2_
00000000000ce090 w _ZNSs13_S_copy_charsEPcN9__gnu_cxx17__normal_iteratorIPKcSsEES4_
00000000000ce0b0 w _ZNSs13_S_copy_charsEPcS_S_
00000000000ce0d0 w _ZNSs13_S_copy_charsEPcPKcS1_
00000000000ce0f0 w _ZNSs10_S_compareEmm
00000000000ce120 w _ZNSs12_S_empty_repEv
00000000000ce130 w _ZNSsC1Ev
00000000000ce140 w _ZNSsC1EOSs
00000000000ce160 w _ZNKSs5beginEv
00000000000ce170 w _ZNKSs3endEv
00000000000ce180 w _ZNKSs6rbeginEv
00000000000ce190 w _ZNKSs4rendEv
00000000000ce1a0 w _ZNKSs6cbeginEv
00000000000ce1b0 w _ZNKSs4cendEv
00000000000ce1c0 w _ZNKSs7crbeginEv
00000000000ce1d0 w _ZNKSs5crendEv
00000000000ce1e0 w _ZNKSs4sizeEv
00000000000ce1f0 w _ZNKSs6lengthEv
00000000000ce200 w _ZNKSs8max_sizeEv
00000000000ce210 w _ZNKSs8capacityEv
00000000000ce220 w _ZNKSs5emptyEv
00000000000ce230 w _ZNKSsixEm
00000000000ce240 w _ZNKSs2atEm
00000000000ce260 w _ZNKSs5frontEv
00000000000ce270 w _ZNKSs4backEv
00000000000ce280 w _ZNKSs4copyEPcmm
00000000000ce2f0 w _ZNSs4swapERSs
00000000000ce330 w _ZNSsaSEOSs
00000000000ce340 w _ZNSs6assignEOSs
00000000000ce350 w _ZNKSs5c_strEv
00000000000ce360 w _ZNKSs4dataEv
00000000000ce370 w _ZNKSs13get_allocatorEv
00000000000ce380 w _ZNKSs4findEPKcmm
00000000000ce440 w _ZNKSs4findERKSsm
00000000000ce450 w _ZNKSs4findEPKcm
00000000000ce480 w _ZNKSs4findEcm
00000000000ce4e0 w _ZNKSs5rfindEPKcmm
00000000000ce580 w _ZNKSs5rfindERKSsm
00000000000ce590 w _ZNKSs5rfindEPKcm
00000000000ce5c0 w _ZNKSs5rfindEcm
00000000000ce600 w _ZNKSs13find_first_ofEPKcmm
00000000000ce670 w _ZNKSs13find_first_ofERKSsm
00000000000ce680 w _ZNKSs13find_first_ofEPKcm
00000000000ce6b0 w _ZNKSs13find_first_ofEcm
00000000000ce6c0 w _ZNKSs12find_last_ofEPKcmm
00000000000ce740 w _ZNKSs12find_last_ofERKSsm
00000000000ce750 w _ZNKSs12find_last_ofEPKcm
00000000000ce780 w _ZNKSs12find_last_ofEcm
00000000000ce790 w _ZNKSs17find_first_not_ofEPKcmm
00000000000ce800 w _ZNKSs17find_first_not_ofERKSsm
00000000000ce810 w _ZNKSs17find_first_not_ofEPKcm
00000000000ce840 w _ZNKSs17find_first_not_ofEcm
00000000000ce890 w _ZNKSs16find_last_not_ofEPKcmm
00000000000ce930 w _ZNKSs16find_last_not_ofERKSsm
00000000000ce940 w _ZNKSs16find_last_not_ofEPKcm
00000000000ce970 w _ZNKSs16find_last_not_ofEcm
00000000000ce9c0 w _ZNKSs7compareERKSs
00000000000cea20 w _ZNKSs7compareEmmRKSs
00000000000cead0 w _ZNKSs7compareEmmRKSsmm
00000000000ceba0 w _ZNKSs7compareEPKc
00000000000cec20 w _ZNKSs7compareEmmPKc
00000000000cecd0 w _ZNKSs7compareEmmPKcm
00000000000ced70 w _ZNSs12_Alloc_hiderC2EPcRKSaIcE
00000000000ced80 w _ZNSs4_Rep12_S_empty_repEv
00000000000ced90 w _ZNKSs4_Rep12_M_is_leakedEv
00000000000ceda0 w _ZNKSs4_Rep12_M_is_sharedEv
00000000000cedb0 w _ZNSs4_Rep13_M_set_leakedEv
00000000000cedc0 w _ZNSs4_Rep15_M_set_sharableEv
00000000000cedd0 w _ZNSs4_Rep10_M_refdataEv
00000000000cede0 w _ZNSs4_Rep9_S_createEmmRKSaIcE
00000000000cee60 w _ZNSs12_S_constructEmcRKSaIcE
00000000000ceee0 w _ZNSsC1ERKSaIcE
00000000000cef00 w _ZNSsC1EmcRKSaIcE
00000000000cef20 w _ZNSs18_S_construct_aux_2EmcRKSaIcE
00000000000cefc0 w _ZNSs4_Rep10_M_destroyERKSaIcE
00000000000cf010 w _ZNSs4_Rep10_M_disposeERKSaIcE
00000000000cf050 w _ZNSsD2Ev
00000000000cf0e0 w _ZNSs9_M_mutateEmmm
00000000000cf2e0 w _ZNSs12_M_leak_hardEv
00000000000cf320 w _ZNSs7_M_leakEv
00000000000cf340 w _ZNSs5beginEv
00000000000cf360 w _ZNSs4rendEv
00000000000cf390 w _ZNSs3endEv
00000000000cf3c0 w _ZNSs6rbeginEv
00000000000cf400 w _ZNSsixEm
00000000000cf430 w _ZNSs5frontEv
00000000000cf450 w _ZNSs4backEv
00000000000cf480 w _ZNSs2atEm
00000000000cf4c0 w _ZNSs5clearEv
00000000000cf4d0 w _ZNSs5eraseEmm
00000000000cf520 w _ZNSs5eraseEN9__gnu_cxx17__normal_iteratorIPcSsEE
00000000000cf560 w _ZNSs5eraseEN9__gnu_cxx17__normal_iteratorIPcSsEES2_
00000000000cf5a0 w _ZNSs14_M_replace_auxEmmmc
00000000000cf630 w _ZNSs6assignEmc
00000000000cf650 w _ZNSsaSEc
00000000000cf670 w _ZNSs6insertEmmc
00000000000cf6b0 w _ZNSs6insertEN9__gnu_cxx17__normal_iteratorIPcSsEEc
00000000000cf6f0 w _ZNSs7replaceEmmmc
00000000000cf730 w _ZNSs7replaceEN9__gnu_cxx17__normal_iteratorIPcSsEES2_mc
00000000000cf740 w _ZNSs6insertEN9__gnu_cxx17__normal_iteratorIPcSsEEmc
00000000000cf760 w _ZNSs15_M_replace_safeEmmPKcm
00000000000cf7d0 w _ZNSs6assignEPKcm
00000000000cf8c0 w _ZNSsaSESt16initializer_listIcE
00000000000cf8d0 w _ZNSs6assignERKSsmm
00000000000cf920 w _ZNSs6assignEPKc
00000000000cf950 w _ZNSsaSEPKc
00000000000cf980 w _ZNSs6assignESt16initializer_listIcE
00000000000cf990 w _ZNSs6insertEmPKcm
00000000000cfb40 w _ZNSs6insertEN9__gnu_cxx17__normal_iteratorIPcSsEESt16initializer_listIcE
00000000000cfb50 w _ZNSs6insertEmRKSsmm
00000000000cfba0 w _ZNSs6insertEmPKc
00000000000cfbd0 w _ZNSs6insertEmRKSs
00000000000cfbe0 w _ZNSs8pop_backEv
00000000000cfc20 w _ZNSs4_Rep10_M_refcopyEv
00000000000cfc50 w _ZNSs4_Rep8_M_cloneERKSaIcEm
00000000000cfce0 w _ZNSs7reserveEm
00000000000cfdb0 w _ZNSs13shrink_to_fitEv
00000000000cfde0 w _ZNSs6appendERKSs
00000000000cfe80 w _ZNSspLERKSs
00000000000cfe90 w _ZNSs6appendERKSsmm
00000000000cff60 w _ZNSs6appendEPKcm
00000000000d0050 w _ZNSspLESt16initializer_listIcE
00000000000d0060 w _ZNSs6appendEPKc
00000000000d0090 w _ZNSspLEPKc
00000000000d00c0 w _ZNSs6appendESt16initializer_listIcE
00000000000d00d0 w _ZNSs6appendEmc
00000000000d0190 w _ZNSs6resizeEmc
00000000000d01e0 w _ZNSs6resizeEm
00000000000d01f0 w _ZNSs9push_backEc
00000000000d0260 w _ZNSspLEc
00000000000d02d0 w _ZNSs4_Rep7_M_grabERKSaIcES2_
00000000000d0310 w _ZNSsC1ERKSs
00000000000d03a0 w _ZNSs6assignERKSs
00000000000d04d0 w _ZNSsaSERKSs
00000000000d04e0 w _ZStplIcSt11char_traitsIcESaIcEESbIT_T0_T1_EPKS3_RKS6_
00000000000d0590 w _ZStplIcSt11char_traitsIcESaIcEESbIT_T0_T1_ES3_RKS6_
00000000000d0630 w _ZStplIcSt11char_traitsIcESaIcEESbIT_T0_T1_ERKS6_S8_
00000000000d06a0 w _ZNSs12_S_constructIN9__gnu_cxx17__normal_iteratorIPcSsEEEES2_T_S4_RKSaIcESt20forward_iterator_tag
00000000000d0740 w _ZNSsC2IN9__gnu_cxx17__normal_iteratorIPcSsEEEET_S4_RKSaIcE
00000000000d0760 w _ZNSs12_S_constructIPcEES0_T_S1_RKSaIcESt20forward_iterator_tag
00000000000d07a0 w _ZNSsC1ERKSsmm
00000000000d0830 w _ZNKSs6substrEmm
00000000000d0870 w _ZNSsC2ERKSsmmRKSaIcE
00000000000d08d0 w _ZNSsC2IPcEET_S1_RKSaIcE
00000000000d08f0 w _ZNSs12_S_constructIPKcEEPcT_S3_RKSaIcESt20forward_iterator_tag
00000000000d0930 w _ZNSsC1EPKcmRKSaIcE
00000000000d0960 w _ZNSs7replaceEmmPKcm
00000000000d0b70 w _ZNSs7replaceEmmRKSs
00000000000d0b80 w _ZNSs7replaceEmmRKSsmm
00000000000d0bd0 w _ZNSs7replaceEmmPKc
00000000000d0c10 w _ZNSs7replaceEN9__gnu_cxx17__normal_iteratorIPcSsEES2_PKcm
00000000000d0c20 w _ZNSs7replaceEN9__gnu_cxx17__normal_iteratorIPcSsEES2_RKSs
00000000000d0c40 w _ZNSs7replaceEN9__gnu_cxx17__normal_iteratorIPcSsEES2_PKc
00000000000d0c90 w _ZNSs7replaceEN9__gnu_cxx17__normal_iteratorIPcSsEES2_S1_S1_
00000000000d0ca0 w _ZNSs7replaceEN9__gnu_cxx17__normal_iteratorIPcSsEES2_PKcS4_
00000000000d0cb0 w _ZNSs7replaceEN9__gnu_cxx17__normal_iteratorIPcSsEES2_St16initializer_listIcE
00000000000d0cc0 w _ZNSs7replaceEN9__gnu_cxx17__normal_iteratorIPcSsEES2_S2_S2_
00000000000d0cd0 w _ZNSs7replaceEN9__gnu_cxx17__normal_iteratorIPcSsEES2_NS0_IPKcSsEES5_
00000000000d0ce0 w _ZNSsC2EPKcRKSaIcE
00000000000d0d30 w _ZNSsC1ESt16initializer_listIcERKSaIcE
00000000000d0d60 w _ZNSsC2IPKcEET_S2_RKSaIcE
00000000000d0d80 w _ZStlsIcSt11char_traitsIcESaIcEERSt13basic_ostreamIT_T0_ES7_RKSbIS4_S5_T1_E
00000000000d0d90 w _ZSt7getlineIcSt11char_traitsIcESaIcEERSt13basic_istreamIT_T0_ES7_RSbIS4_S5_T1_E
00000000000d0e10 T _ZNSt13random_device7_M_initERKSs
00000000000d0ec0 T _ZNSt13random_device14_M_init_pretr1ERKSs
00000000000d0f80 w _ZNKSbIwSt11char_traitsIwESaIwEE7_M_dataEv
00000000000d0f90 w _ZNSbIwSt11char_traitsIwESaIwEE7_M_dataEPw
00000000000d0fa0 w _ZNKSbIwSt11char_traitsIwESaIwEE6_M_repEv
00000000000d0fb0 w _ZNKSbIwSt11char_traitsIwESaIwEE9_M_ibeginEv
00000000000d0fc0 w _ZNKSbIwSt11char_traitsIwESaIwEE7_M_iendEv
00000000000d0fd0 w _ZNKSbIwSt11char_traitsIwESaIwEE8_M_checkEmPKc
00000000000d1000 w _ZNKSbIwSt11char_traitsIwESaIwEE8_M_limitEmm
00000000000d1020 w _ZNSbIwSt11char_traitsIwESaIwEE13_S_copy_charsEPwN9__gnu_cxx17__normal_iteratorIS3_S2_EES6_
00000000000d1050 w _ZNSbIwSt11char_traitsIwESaIwEE13_S_copy_charsEPwN9__gnu_cxx17__normal_iteratorIPKwS2_EES8_
00000000000d1080 w _ZNSbIwSt11char_traitsIwESaIwEE13_S_copy_charsEPwS3_S3_
00000000000d10b0 w _ZNSbIwSt11char_traitsIwESaIwEE13_S_copy_charsEPwPKwS5_
00000000000d10e0 w _ZNSbIwSt11char_traitsIwESaIwEE10_S_compareEmm
00000000000d1110 w _ZNSbIwSt11char_traitsIwESaIwEE12_S_empty_repEv
00000000000d1120 w _ZNSbIwSt11char_traitsIwESaIwEEC2Ev
00000000000d1130 w _ZNSbIwSt11char_traitsIwESaIwEEC2EOS2_
00000000000d1150 w _ZNKSbIwSt11char_traitsIwESaIwEE5beginEv
00000000000d1160 w _ZNKSbIwSt11char_traitsIwESaIwEE3endEv
00000000000d1170 w _ZNKSbIwSt11char_traitsIwESaIwEE6rbeginEv
00000000000d1190 w _ZNKSbIwSt11char_traitsIwESaIwEE4rendEv
00000000000d11a0 w _ZNKSbIwSt11char_traitsIwESaIwEE6cbeginEv
00000000000d11b0 w _ZNKSbIwSt11char_traitsIwESaIwEE4cendEv
00000000000d11c0 w _ZNKSbIwSt11char_traitsIwESaIwEE7crbeginEv
00000000000d11e0 w _ZNKSbIwSt11char_traitsIwESaIwEE5crendEv
00000000000d11f0 w _ZNKSbIwSt11char_traitsIwESaIwEE4sizeEv
00000000000d1200 w _ZNKSbIwSt11char_traitsIwESaIwEE6lengthEv
00000000000d1210 w _ZNKSbIwSt11char_traitsIwESaIwEE8max_sizeEv
00000000000d1220 w _ZNKSbIwSt11char_traitsIwESaIwEE8capacityEv
00000000000d1230 w _ZNKSbIwSt11char_traitsIwESaIwEE5emptyEv
00000000000d1240 w _ZNKSbIwSt11char_traitsIwESaIwEEixEm
00000000000d1250 w _ZNKSbIwSt11char_traitsIwESaIwEE2atEm
00000000000d1270 w _ZNKSbIwSt11char_traitsIwESaIwEE5frontEv
00000000000d1280 w _ZNKSbIwSt11char_traitsIwESaIwEE4backEv
00000000000d1290 w _ZNKSbIwSt11char_traitsIwESaIwEE4copyEPwmm
00000000000d1300 w _ZNSbIwSt11char_traitsIwESaIwEE4swapERS2_
00000000000d1340 w _ZNSbIwSt11char_traitsIwESaIwEEaSEOS2_
00000000000d1350 w _ZNSbIwSt11char_traitsIwESaIwEE6assignEOS2_
00000000000d1360 w _ZNKSbIwSt11char_traitsIwESaIwEE5c_strEv
00000000000d1370 w _ZNKSbIwSt11char_traitsIwESaIwEE4dataEv
00000000000d1380 w _ZNKSbIwSt11char_traitsIwESaIwEE13get_allocatorEv
00000000000d1390 w _ZNKSbIwSt11char_traitsIwESaIwEE4findEPKwmm
00000000000d1460 w _ZNKSbIwSt11char_traitsIwESaIwEE4findERKS2_m
00000000000d1470 w _ZNKSbIwSt11char_traitsIwESaIwEE4findEPKwm
00000000000d14a0 w _ZNKSbIwSt11char_traitsIwESaIwEE4findEwm
00000000000d1500 w _ZNKSbIwSt11char_traitsIwESaIwEE5rfindEPKwmm
00000000000d1590 w _ZNKSbIwSt11char_traitsIwESaIwEE5rfindERKS2_m
00000000000d15a0 w _ZNKSbIwSt11char_traitsIwESaIwEE5rfindEPKwm
00000000000d15d0 w _ZNKSbIwSt11char_traitsIwESaIwEE5rfindEwm
00000000000d1610 w _ZNKSbIwSt11char_traitsIwESaIwEE13find_first_ofEPKwmm
00000000000d1680 w _ZNKSbIwSt11char_traitsIwESaIwEE13find_first_ofERKS2_m
00000000000d1690 w _ZNKSbIwSt11char_traitsIwESaIwEE13find_first_ofEPKwm
00000000000d16c0 w _ZNKSbIwSt11char_traitsIwESaIwEE13find_first_ofEwm
00000000000d16d0 w _ZNKSbIwSt11char_traitsIwESaIwEE12find_last_ofEPKwmm
00000000000d1750 w _ZNKSbIwSt11char_traitsIwESaIwEE12find_last_ofERKS2_m
00000000000d1760 w _ZNKSbIwSt11char_traitsIwESaIwEE12find_last_ofEPKwm
00000000000d1790 w _ZNKSbIwSt11char_traitsIwESaIwEE12find_last_ofEwm
00000000000d17a0 w _ZNKSbIwSt11char_traitsIwESaIwEE17find_first_not_ofEPKwmm
00000000000d1820 w _ZNKSbIwSt11char_traitsIwESaIwEE17find_first_not_ofERKS2_m
00000000000d1830 w _ZNKSbIwSt11char_traitsIwESaIwEE17find_first_not_ofEPKwm
00000000000d1860 w _ZNKSbIwSt11char_traitsIwESaIwEE17find_first_not_ofEwm
00000000000d18b0 w _ZNKSbIwSt11char_traitsIwESaIwEE16find_last_not_ofEPKwmm
00000000000d1950 w _ZNKSbIwSt11char_traitsIwESaIwEE16find_last_not_ofERKS2_m
00000000000d1960 w _ZNKSbIwSt11char_traitsIwESaIwEE16find_last_not_ofEPKwm
00000000000d1990 w _ZNKSbIwSt11char_traitsIwESaIwEE16find_last_not_ofEwm
00000000000d19e0 w _ZNKSbIwSt11char_traitsIwESaIwEE7compareERKS2_
00000000000d1a40 w _ZNKSbIwSt11char_traitsIwESaIwEE7compareEmmRKS2_
00000000000d1af0 w _ZNKSbIwSt11char_traitsIwESaIwEE7compareEmmRKS2_mm
00000000000d1bc0 w _ZNKSbIwSt11char_traitsIwESaIwEE7compareEPKw
00000000000d1c40 w _ZNKSbIwSt11char_traitsIwESaIwEE7compareEmmPKw
00000000000d1cf0 w _ZNKSbIwSt11char_traitsIwESaIwEE7compareEmmPKwm
00000000000d1d90 w _ZNSbIwSt11char_traitsIwESaIwEE12_Alloc_hiderC1EPwRKS1_
00000000000d1da0 w _ZNSbIwSt11char_traitsIwESaIwEE4_Rep12_S_empty_repEv
00000000000d1db0 w _ZNKSbIwSt11char_traitsIwESaIwEE4_Rep12_M_is_leakedEv
00000000000d1dc0 w _ZNKSbIwSt11char_traitsIwESaIwEE4_Rep12_M_is_sharedEv
00000000000d1dd0 w _ZNSbIwSt11char_traitsIwESaIwEE4_Rep13_M_set_leakedEv
00000000000d1de0 w _ZNSbIwSt11char_traitsIwESaIwEE4_Rep15_M_set_sharableEv
00000000000d1df0 w _ZNSbIwSt11char_traitsIwESaIwEE4_Rep10_M_refdataEv
00000000000d1e00 w _ZNSbIwSt11char_traitsIwESaIwEE4_Rep9_S_createEmmRKS1_
00000000000d1e90 w _ZNSbIwSt11char_traitsIwESaIwEE12_S_constructEmwRKS1_
00000000000d1f20 w _ZNSbIwSt11char_traitsIwESaIwEEC2ERKS1_
00000000000d1f40 w _ZNSbIwSt11char_traitsIwESaIwEEC1EmwRKS1_
00000000000d1f60 w _ZNSbIwSt11char_traitsIwESaIwEE18_S_construct_aux_2EmwRKS1_
00000000000d2010 w _ZNSbIwSt11char_traitsIwESaIwEE4_Rep10_M_destroyERKS1_
00000000000d2020 w _ZNSbIwSt11char_traitsIwESaIwEE4_Rep10_M_disposeERKS1_
00000000000d2060 w _ZNSbIwSt11char_traitsIwESaIwEED2Ev
00000000000d20f0 w _ZNSbIwSt11char_traitsIwESaIwEE9_M_mutateEmmm
00000000000d2300 w _ZNSbIwSt11char_traitsIwESaIwEE12_M_leak_hardEv
00000000000d2340 w _ZNSbIwSt11char_traitsIwESaIwEE7_M_leakEv
00000000000d2360 w _ZNSbIwSt11char_traitsIwESaIwEE5beginEv
00000000000d2380 w _ZNSbIwSt11char_traitsIwESaIwEE4rendEv
00000000000d23b0 w _ZNSbIwSt11char_traitsIwESaIwEE3endEv
00000000000d23e0 w _ZNSbIwSt11char_traitsIwESaIwEE6rbeginEv
00000000000d2420 w _ZNSbIwSt11char_traitsIwESaIwEEixEm
00000000000d2450 w _ZNSbIwSt11char_traitsIwESaIwEE5frontEv
00000000000d2470 w _ZNSbIwSt11char_traitsIwESaIwEE4backEv
00000000000d24a0 w _ZNSbIwSt11char_traitsIwESaIwEE2atEm
00000000000d24e0 w _ZNSbIwSt11char_traitsIwESaIwEE5clearEv
00000000000d24f0 w _ZNSbIwSt11char_traitsIwESaIwEE5eraseEmm
00000000000d2540 w _ZNSbIwSt11char_traitsIwESaIwEE5eraseEN9__gnu_cxx17__normal_iteratorIPwS2_EE
00000000000d2580 w _ZNSbIwSt11char_traitsIwESaIwEE5eraseEN9__gnu_cxx17__normal_iteratorIPwS2_EES6_
00000000000d25d0 w _ZNSbIwSt11char_traitsIwESaIwEE14_M_replace_auxEmmmw
00000000000d2660 w _ZNSbIwSt11char_traitsIwESaIwEE6assignEmw
00000000000d2680 w _ZNSbIwSt11char_traitsIwESaIwEEaSEw
00000000000d26a0 w _ZNSbIwSt11char_traitsIwESaIwEE6insertEmmw
00000000000d26e0 w _ZNSbIwSt11char_traitsIwESaIwEE6insertEN9__gnu_cxx17__normal_iteratorIPwS2_EEw
00000000000d2720 w _ZNSbIwSt11char_traitsIwESaIwEE7replaceEmmmw
00000000000d2760 w _ZNSbIwSt11char_traitsIwESaIwEE7replaceEN9__gnu_cxx17__normal_iteratorIPwS2_EES6_mw
00000000000d2780 w _ZNSbIwSt11char_traitsIwESaIwEE6insertEN9__gnu_cxx17__normal_iteratorIPwS2_EEmw
00000000000d27a0 w _ZNSbIwSt11char_traitsIwESaIwEE15_M_replace_safeEmmPKwm
00000000000d2810 w _ZNSbIwSt11char_traitsIwESaIwEE6assignEPKwm
00000000000d2900 w _ZNSbIwSt11char_traitsIwESaIwEEaSESt16initializer_listIwE
00000000000d2910 w _ZNSbIwSt11char_traitsIwESaIwEE6assignERKS2_mm
00000000000d2950 w _ZNSbIwSt11char_traitsIwESaIwEE6assignEPKw
00000000000d2980 w _ZNSbIwSt11char_traitsIwESaIwEEaSEPKw
00000000000d29b0 w _ZNSbIwSt11char_traitsIwESaIwEE6assignESt16initializer_listIwE
00000000000d29c0 w _ZNSbIwSt11char_traitsIwESaIwEE6insertEmPKwm
00000000000d2b70 w _ZNSbIwSt11char_traitsIwESaIwEE6insertEN9__gnu_cxx17__normal_iteratorIPwS2_EESt16initializer_listIwE
00000000000d2b80 w _ZNSbIwSt11char_traitsIwESaIwEE6insertEmRKS2_mm
00000000000d2bd0 w _ZNSbIwSt11char_traitsIwESaIwEE6insertEmPKw
00000000000d2c00 w _ZNSbIwSt11char_traitsIwESaIwEE6insertEmRKS2_
00000000000d2c10 w _ZNSbIwSt11char_traitsIwESaIwEE8pop_backEv
00000000000d2c50 w _ZNSbIwSt11char_traitsIwESaIwEE4_Rep10_M_refcopyEv
00000000000d2c80 w _ZNSbIwSt11char_traitsIwESaIwEE4_Rep8_M_cloneERKS1_m
00000000000d2d10 w _ZNSbIwSt11char_traitsIwESaIwEE7reserveEm
00000000000d2de0 w _ZNSbIwSt11char_traitsIwESaIwEE13shrink_to_fitEv
00000000000d2e10 w _ZNSbIwSt11char_traitsIwESaIwEE6appendERKS2_
00000000000d2ec0 w _ZNSbIwSt11char_traitsIwESaIwEEpLERKS2_
00000000000d2ed0 w _ZNSbIwSt11char_traitsIwESaIwEE6appendERKS2_mm
00000000000d2fc0 w _ZNSbIwSt11char_traitsIwESaIwEE6appendEPKwm
00000000000d30e0 w _ZNSbIwSt11char_traitsIwESaIwEEpLESt16initializer_listIwE
00000000000d30f0 w _ZNSbIwSt11char_traitsIwESaIwEE6appendEPKw
00000000000d3120 w _ZNSbIwSt11char_traitsIwESaIwEEpLEPKw
00000000000d3150 w _ZNSbIwSt11char_traitsIwESaIwEE6appendESt16initializer_listIwE
00000000000d3160 w _ZNSbIwSt11char_traitsIwESaIwEE6appendEmw
00000000000d3230 w _ZNSbIwSt11char_traitsIwESaIwEE6resizeEmw
00000000000d3280 w _ZNSbIwSt11char_traitsIwESaIwEE6resizeEm
00000000000d3290 w _ZNSbIwSt11char_traitsIwESaIwEE9push_backEw
00000000000d3300 w _ZNSbIwSt11char_traitsIwESaIwEEpLEw
00000000000d3370 w _ZNSbIwSt11char_traitsIwESaIwEE4_Rep7_M_grabERKS1_S5_
00000000000d33b0 w _ZNSbIwSt11char_traitsIwESaIwEEC2ERKS2_
00000000000d3440 w _ZNSbIwSt11char_traitsIwESaIwEE6assignERKS2_
00000000000d3570 w _ZNSbIwSt11char_traitsIwESaIwEEaSERKS2_
00000000000d3580 w _ZStplIwSt11char_traitsIwESaIwEESbIT_T0_T1_EPKS3_RKS6_
00000000000d3630 w _ZStplIwSt11char_traitsIwESaIwEESbIT_T0_T1_ES3_RKS6_
00000000000d36d0 w _ZStplIwSt11char_traitsIwESaIwEESbIT_T0_T1_ERKS6_S8_
00000000000d3740 w _ZNSbIwSt11char_traitsIwESaIwEE12_S_constructIN9__gnu_cxx17__normal_iteratorIPwS2_EEEES6_T_S8_RKS1_St20forward_iterator_tag
00000000000d37f0 w _ZNSbIwSt11char_traitsIwESaIwEEC2IN9__gnu_cxx17__normal_iteratorIPwS2_EEEET_S8_RKS1_
00000000000d3810 w _ZNSbIwSt11char_traitsIwESaIwEE12_S_constructIPwEES4_T_S5_RKS1_St20forward_iterator_tag
00000000000d3850 w _ZNSbIwSt11char_traitsIwESaIwEEC2ERKS2_mm
00000000000d38e0 w _ZNKSbIwSt11char_traitsIwESaIwEE6substrEmm
00000000000d3920 w _ZNSbIwSt11char_traitsIwESaIwEEC1ERKS2_mmRKS1_
00000000000d3980 w _ZNSbIwSt11char_traitsIwESaIwEEC2IPwEET_S5_RKS1_
00000000000d39a0 w _ZNSbIwSt11char_traitsIwESaIwEE12_S_constructIPKwEEPwT_S7_RKS1_St20forward_iterator_tag
00000000000d39e0 w _ZNSbIwSt11char_traitsIwESaIwEEC1EPKwmRKS1_
00000000000d3a00 w _ZNSbIwSt11char_traitsIwESaIwEE7replaceEmmPKwm
00000000000d3c20 w _ZNSbIwSt11char_traitsIwESaIwEE7replaceEmmRKS2_
00000000000d3c30 w _ZNSbIwSt11char_traitsIwESaIwEE7replaceEmmRKS2_mm
00000000000d3c70 w _ZNSbIwSt11char_traitsIwESaIwEE7replaceEmmPKw
00000000000d3cb0 w _ZNSbIwSt11char_traitsIwESaIwEE7replaceEN9__gnu_cxx17__normal_iteratorIPwS2_EES6_PKwm
00000000000d3cd0 w _ZNSbIwSt11char_traitsIwESaIwEE7replaceEN9__gnu_cxx17__normal_iteratorIPwS2_EES6_RKS2_
00000000000d3cf0 w _ZNSbIwSt11char_traitsIwESaIwEE7replaceEN9__gnu_cxx17__normal_iteratorIPwS2_EES6_PKw
00000000000d3d40 w _ZNSbIwSt11char_traitsIwESaIwEE7replaceEN9__gnu_cxx17__normal_iteratorIPwS2_EES6_S5_S5_
00000000000d3d60 w _ZNSbIwSt11char_traitsIwESaIwEE7replaceEN9__gnu_cxx17__normal_iteratorIPwS2_EES6_PKwS8_
00000000000d3d80 w _ZNSbIwSt11char_traitsIwESaIwEE7replaceEN9__gnu_cxx17__normal_iteratorIPwS2_EES6_St16initializer_listIwE
00000000000d3da0 w _ZNSbIwSt11char_traitsIwESaIwEE7replaceEN9__gnu_cxx17__normal_iteratorIPwS2_EES6_S6_S6_
00000000000d3dc0 w _ZNSbIwSt11char_traitsIwESaIwEE7replaceEN9__gnu_cxx17__normal_iteratorIPwS2_EES6_NS4_IPKwS2_EES9_
00000000000d3de0 w _ZNSbIwSt11char_traitsIwESaIwEEC2EPKwRKS1_
00000000000d3e30 w _ZNSbIwSt11char_traitsIwESaIwEEC2ESt16initializer_listIwERKS1_
00000000000d3e50 w _ZNSbIwSt11char_traitsIwESaIwEEC2IPKwEET_S6_RKS1_
00000000000d3e70 w _ZStrsIwSt11char_traitsIwESaIwEERSt13basic_istreamIT_T0_ES7_RSbIS4_S5_T1_E
00000000000d4190 w _ZStlsIwSt11char_traitsIwESaIwEERSt13basic_ostreamIT_T0_ES7_RKSbIS4_S5_T1_E
00000000000d41a0 w _ZSt7getlineIwSt11char_traitsIwESaIwEERSt13basic_istreamIT_T0_ES7_RSbIS4_S5_T1_E
00000000000d41f0 w _ZNKSt7__cxx1110moneypunctIcLb0EE16do_decimal_pointEv
00000000000d4200 w _ZNKSt7__cxx1110moneypunctIcLb0EE16do_thousands_sepEv
00000000000d4210 w _ZNKSt7__cxx1110moneypunctIcLb0EE14do_frac_digitsEv
00000000000d4220 w _ZNKSt7__cxx1110moneypunctIcLb0EE13do_pos_formatEv
00000000000d4260 w _ZNKSt7__cxx1110moneypunctIcLb0EE13do_neg_formatEv
00000000000d42a0 w _ZNKSt7__cxx1110moneypunctIcLb1EE16do_decimal_pointEv
00000000000d42b0 w _ZNKSt7__cxx1110moneypunctIcLb1EE16do_thousands_sepEv
00000000000d42c0 w _ZNKSt7__cxx1110moneypunctIcLb1EE14do_frac_digitsEv
00000000000d42d0 w _ZNKSt7__cxx1110moneypunctIcLb1EE13do_pos_formatEv
00000000000d4310 w _ZNKSt7__cxx1110moneypunctIcLb1EE13do_neg_formatEv
00000000000d4350 w _ZNSt7__cxx1117moneypunct_bynameIcLb0EED2Ev
00000000000d4370 w _ZNSt7__cxx1117moneypunct_bynameIcLb1EED2Ev
00000000000d4390 w _ZNKSt7__cxx118numpunctIcE16do_decimal_pointEv
00000000000d43a0 w _ZNKSt7__cxx118numpunctIcE16do_thousands_sepEv
00000000000d43b0 w _ZNSt7__cxx1115numpunct_bynameIcED2Ev
00000000000d43d0 w _ZNKSt7__cxx118time_getIcSt19istreambuf_iteratorIcSt11char_traitsIcEEE13do_date_orderEv
00000000000d43e0 w _ZNKSt7__cxx117collateIcE7do_hashEPKcS3_
00000000000d4410 w _ZNSt7__cxx119money_getIcSt19istreambuf_iteratorIcSt11char_traitsIcEEED2Ev
00000000000d4430 w _ZNSt7__cxx119money_putIcSt19ostreambuf_iteratorIcSt11char_traitsIcEEED1Ev
00000000000d4450 w _ZNSt7__cxx118time_getIcSt19istreambuf_iteratorIcSt11char_traitsIcEEED2Ev
00000000000d4470 w _ZNSt7__cxx1115time_get_bynameIcSt19istreambuf_iteratorIcSt11char_traitsIcEEED2Ev
00000000000d4490 w _ZNSt7__cxx1117moneypunct_bynameIcLb0EED0Ev
00000000000d44b0 w _ZNSt7__cxx1117moneypunct_bynameIcLb1EED0Ev
00000000000d44d0 w _ZNSt7__cxx119money_getIcSt19istreambuf_iteratorIcSt11char_traitsIcEEED0Ev
00000000000d44f0 w _ZNSt7__cxx119money_putIcSt19ostreambuf_iteratorIcSt11char_traitsIcEEED0Ev
00000000000d4510 w _ZNSt7__cxx1115numpunct_bynameIcED0Ev
00000000000d4530 w _ZNSt7__cxx118time_getIcSt19istreambuf_iteratorIcSt11char_traitsIcEEED0Ev
00000000000d4550 w _ZNSt7__cxx1115time_get_bynameIcSt19istreambuf_iteratorIcSt11char_traitsIcEEED0Ev
00000000000d4570 w _ZNSt7__cxx117collateIcED2Ev
00000000000d45a0 w _ZNSt7__cxx117collateIcED0Ev
00000000000d45d0 w _ZNSt7__cxx1114collate_bynameIcED2Ev
00000000000d4600 w _ZNSt7__cxx1114collate_bynameIcED0Ev
00000000000d4630 w _ZNSt7__cxx118messagesIcED1Ev
00000000000d4680 w _ZNSt7__cxx118messagesIcED0Ev
00000000000d46a0 w _ZNSt7__cxx1115messages_bynameIcED1Ev
00000000000d46c0 w _ZNSt7__cxx1115messages_bynameIcED0Ev
00000000000d47b0 w _ZNKSt7__cxx117collateIcE10do_compareEPKcS3_S3_S3_
00000000000d4910 w _ZNKSt7__cxx1110moneypunctIcLb0EE11do_groupingEv
00000000000d4960 w _ZNKSt7__cxx1110moneypunctIcLb0EE14do_curr_symbolEv
00000000000d49b0 w _ZNKSt7__cxx1110moneypunctIcLb0EE16do_positive_signEv
00000000000d4a00 w _ZNKSt7__cxx1110moneypunctIcLb0EE16do_negative_signEv
00000000000d4a50 w _ZNKSt7__cxx1110moneypunctIcLb1EE11do_groupingEv
00000000000d4aa0 w _ZNKSt7__cxx1110moneypunctIcLb1EE14do_curr_symbolEv
00000000000d4af0 w _ZNKSt7__cxx1110moneypunctIcLb1EE16do_positive_signEv
00000000000d4b40 w _ZNKSt7__cxx1110moneypunctIcLb1EE16do_negative_signEv
00000000000d4b90 w _ZNKSt7__cxx118numpunctIcE11do_groupingEv
00000000000d4be0 w _ZNKSt7__cxx118numpunctIcE11do_truenameEv
00000000000d4c30 w _ZNKSt7__cxx118numpunctIcE12do_falsenameEv
00000000000d4c80 w _ZNKSt7__cxx117collateIcE12do_transformEPKcS3_
00000000000d5000 w _ZNSt7__cxx1110moneypunctIcLb0EEC1Em
00000000000d5050 w _ZNSt7__cxx1110moneypunctIcLb0EEC2EPSt18__moneypunct_cacheIcLb0EEm
00000000000d50a0 w _ZNSt7__cxx1110moneypunctIcLb0EEC1EP15__locale_structPKcm
00000000000d50f0 w _ZNKSt7__cxx1110moneypunctIcLb0EE13decimal_pointEv
00000000000d5120 w _ZNKSt7__cxx1110moneypunctIcLb0EE13thousands_sepEv
00000000000d5150 w _ZNKSt7__cxx1110moneypunctIcLb0EE8groupingEv
00000000000d51e0 w _ZNKSt7__cxx1110moneypunctIcLb0EE11curr_symbolEv
00000000000d5270 w _ZNKSt7__cxx1110moneypunctIcLb0EE13positive_signEv
00000000000d5300 w _ZNKSt7__cxx1110moneypunctIcLb0EE13negative_signEv
00000000000d5390 w _ZNKSt7__cxx1110moneypunctIcLb0EE11frac_digitsEv
00000000000d53c0 w _ZNKSt7__cxx1110moneypunctIcLb0EE10pos_formatEv
00000000000d5410 w _ZNKSt7__cxx1110moneypunctIcLb0EE10neg_formatEv
00000000000d5460 w _ZNSt7__cxx1110moneypunctIcLb1EEC2Em
00000000000d54b0 w _ZNSt7__cxx1110moneypunctIcLb1EEC2EPSt18__moneypunct_cacheIcLb1EEm
00000000000d5500 w _ZNSt7__cxx1110moneypunctIcLb1EEC2EP15__locale_structPKcm
00000000000d5550 w _ZNKSt7__cxx1110moneypunctIcLb1EE13decimal_pointEv
00000000000d5580 w _ZNKSt7__cxx1110moneypunctIcLb1EE13thousands_sepEv
00000000000d55b0 w _ZNKSt7__cxx1110moneypunctIcLb1EE8groupingEv
00000000000d5640 w _ZNKSt7__cxx1110moneypunctIcLb1EE11curr_symbolEv
00000000000d56d0 w _ZNKSt7__cxx1110moneypunctIcLb1EE13positive_signEv
00000000000d5760 w _ZNKSt7__cxx1110moneypunctIcLb1EE13negative_signEv
00000000000d57f0 w _ZNKSt7__cxx1110moneypunctIcLb1EE11frac_digitsEv
00000000000d5820 w _ZNKSt7__cxx1110moneypunctIcLb1EE10pos_formatEv
00000000000d5870 w _ZNKSt7__cxx1110moneypunctIcLb1EE10neg_formatEv
00000000000d58c0 w _ZNSt7__cxx1117moneypunct_bynameIcLb0EEC1EPKcm
00000000000d59b0 w _ZNSt7__cxx1117moneypunct_bynameIcLb0EEC1ERKNS_12basic_stringIcSt11char_traitsIcESaIcEEEm
00000000000d5aa0 w _ZNSt7__cxx1117moneypunct_bynameIcLb1EEC1EPKcm
00000000000d5b90 w _ZNSt7__cxx1117moneypunct_bynameIcLb1EEC2ERKNS_12basic_stringIcSt11char_traitsIcESaIcEEEm
00000000000d5c80 w _ZNSt7__cxx119money_getIcSt19istreambuf_iteratorIcSt11char_traitsIcEEEC1Em
00000000000d5ca0 w _ZNKSt7__cxx119money_getIcSt19istreambuf_iteratorIcSt11char_traitsIcEEE3getES4_S4_bRSt8ios_baseRSt12_Ios_IostateRe
00000000000d5cc0 w _ZNKSt7__cxx119money_getIcSt19istreambuf_iteratorIcSt11char_traitsIcEEE3getES4_S4_bRSt8ios_baseRSt12_Ios_IostateRNS_12basic_stringIcS3_SaIcEEE
00000000000d5ce0 w _ZNSt7__cxx119money_putIcSt19ostreambuf_iteratorIcSt11char_traitsIcEEEC2Em
00000000000d5d00 w _ZNKSt7__cxx119money_putIcSt19ostreambuf_iteratorIcSt11char_traitsIcEEE3putES4_bRSt8ios_basece
00000000000d5d20 w _ZNKSt7__cxx119money_putIcSt19ostreambuf_iteratorIcSt11char_traitsIcEEE3putES4_bRSt8ios_basecRKNS_12basic_stringIcS3_SaIcEEE
00000000000d5d40 w _ZNKSt7__cxx119money_getIcSt19istreambuf_iteratorIcSt11char_traitsIcEEE10_M_extractILb1EEES4_S4_S4_RSt8ios_baseRSt12_Ios_IostateRNS_12basic_stringIcS3_SaIcEEE
00000000000d7250 w _ZNKSt7__cxx119money_getIcSt19istreambuf_iteratorIcSt11char_traitsIcEEE10_M_extractILb0EEES4_S4_S4_RSt8ios_baseRSt12_Ios_IostateRNS_12basic_stringIcS3_SaIcEEE
00000000000d8760 w _ZNKSt7__cxx119money_getIcSt19istreambuf_iteratorIcSt11char_traitsIcEEE6do_getES4_S4_bRSt8ios_baseRSt12_Ios_IostateRe
00000000000d8880 w _ZNKSt7__cxx119money_getIcSt19istreambuf_iteratorIcSt11char_traitsIcEEE6do_getES4_S4_bRSt8ios_baseRSt12_Ios_IostateRNS_12basic_stringIcS3_SaIcEEE
00000000000d8a60 w _ZNKSt7__cxx119money_putIcSt19ostreambuf_iteratorIcSt11char_traitsIcEEE9_M_insertILb1EEES4_S4_RSt8ios_basecRKNS_12basic_stringIcS3_SaIcEEE
00000000000d9190 w _ZNKSt7__cxx119money_putIcSt19ostreambuf_iteratorIcSt11char_traitsIcEEE9_M_insertILb0EEES4_S4_RSt8ios_basecRKNS_12basic_stringIcS3_SaIcEEE
00000000000d98c0 w _ZNKSt7__cxx119money_putIcSt19ostreambuf_iteratorIcSt11char_traitsIcEEE6do_putES4_bRSt8ios_basece
00000000000d9b10 w _ZNKSt7__cxx119money_putIcSt19ostreambuf_iteratorIcSt11char_traitsIcEEE6do_putES4_bRSt8ios_basecRKNS_12basic_stringIcS3_SaIcEEE
00000000000d9b50 w _ZNSt7__cxx118numpunctIcEC2Em
00000000000d9ba0 w _ZNSt7__cxx118numpunctIcEC2EPSt16__numpunct_cacheIcEm
00000000000d9bf0 w _ZNSt7__cxx118numpunctIcEC1EP15__locale_structm
00000000000d9c40 w _ZNKSt7__cxx118numpunctIcE13decimal_pointEv
00000000000d9c70 w _ZNKSt7__cxx118numpunctIcE13thousands_sepEv
00000000000d9ca0 w _ZNKSt7__cxx118numpunctIcE8groupingEv
00000000000d9d30 w _ZNKSt7__cxx118numpunctIcE8truenameEv
00000000000d9dc0 w _ZNKSt7__cxx118numpunctIcE9falsenameEv
00000000000d9e50 w _ZNSt7__cxx1115numpunct_bynameIcEC1EPKcm
00000000000d9f40 w _ZNSt7__cxx1115numpunct_bynameIcEC2ERKNS_12basic_stringIcSt11char_traitsIcESaIcEEEm
00000000000da030 w _ZNSt15time_put_bynameIcSt19ostreambuf_iteratorIcSt11char_traitsIcEEEC1ERKNSt7__cxx1112basic_stringIcS2_SaIcEEEm
00000000000da050 w _ZNSt7__cxx118time_getIcSt19istreambuf_iteratorIcSt11char_traitsIcEEEC1Em
00000000000da070 w _ZNKSt7__cxx118time_getIcSt19istreambuf_iteratorIcSt11char_traitsIcEEE10date_orderEv
00000000000da080 w _ZNKSt7__cxx118time_getIcSt19istreambuf_iteratorIcSt11char_traitsIcEEE8get_timeES4_S4_RSt8ios_baseRSt12_Ios_IostateP2tm
00000000000da0a0 w _ZNKSt7__cxx118time_getIcSt19istreambuf_iteratorIcSt11char_traitsIcEEE8get_dateES4_S4_RSt8ios_baseRSt12_Ios_IostateP2tm
00000000000da0c0 w _ZNKSt7__cxx118time_getIcSt19istreambuf_iteratorIcSt11char_traitsIcEEE11get_weekdayES4_S4_RSt8ios_baseRSt12_Ios_IostateP2tm
00000000000da0e0 w _ZNKSt7__cxx118time_getIcSt19istreambuf_iteratorIcSt11char_traitsIcEEE13get_monthnameES4_S4_RSt8ios_baseRSt12_Ios_IostateP2tm
00000000000da100 w _ZNKSt7__cxx118time_getIcSt19istreambuf_iteratorIcSt11char_traitsIcEEE8get_yearES4_S4_RSt8ios_baseRSt12_Ios_IostateP2tm
00000000000da120 w _ZNKSt7__cxx118time_getIcSt19istreambuf_iteratorIcSt11char_traitsIcEEE14_M_extract_numES4_S4_RiiimRSt8ios_baseRSt12_Ios_Iostate
00000000000da530 w _ZNKSt7__cxx118time_getIcSt19istreambuf_iteratorIcSt11char_traitsIcEEE11do_get_yearES4_S4_RSt8ios_baseRSt12_Ios_IostateP2tm
00000000000da700 w _ZNKSt7__cxx118time_getIcSt19istreambuf_iteratorIcSt11char_traitsIcEEE24_M_extract_wday_or_monthES4_S4_RiPPKcmRSt8ios_baseRSt12_Ios_Iostate
00000000000dacf0 w _ZNKSt7__cxx118time_getIcSt19istreambuf_iteratorIcSt11char_traitsIcEEE14do_get_weekdayES4_S4_RSt8ios_baseRSt12_Ios_IostateP2tm
00000000000dafb0 w _ZNKSt7__cxx118time_getIcSt19istreambuf_iteratorIcSt11char_traitsIcEEE16do_get_monthnameES4_S4_RSt8ios_baseRSt12_Ios_IostateP2tm
00000000000db340 w _ZNSt7__cxx1115time_get_bynameIcSt19istreambuf_iteratorIcSt11char_traitsIcEEEC2EPKcm
00000000000db360 w _ZNSt7__cxx1115time_get_bynameIcSt19istreambuf_iteratorIcSt11char_traitsIcEEEC1ERKNS_12basic_stringIcS3_SaIcEEEm
00000000000db380 w _ZNSt7__cxx118messagesIcEC2Em
00000000000db3d0 w _ZNSt7__cxx118messagesIcEC2EP15__locale_structPKcm
00000000000db480 w _ZNKSt7__cxx118messagesIcE4openERKNS_12basic_stringIcSt11char_traitsIcESaIcEEERKSt6locale
00000000000db490 w _ZNKSt7__cxx118messagesIcE4openERKNS_12basic_stringIcSt11char_traitsIcESaIcEEERKSt6localePKc
00000000000db4c0 w _ZNKSt7__cxx118messagesIcE3getEiiiRKNS_12basic_stringIcSt11char_traitsIcESaIcEEE
00000000000db500 w _ZNKSt7__cxx118messagesIcE5closeEi
00000000000db510 w _ZNKSt7__cxx118messagesIcE18_M_convert_to_charERKNS_12basic_stringIcSt11char_traitsIcESaIcEEE
00000000000db520 w _ZNKSt7__cxx118messagesIcE20_M_convert_from_charEPc
00000000000db540 w _ZNSt7__cxx1115messages_bynameIcEC1EPKcm
00000000000db640 w _ZNSt7__cxx1115messages_bynameIcEC1ERKNS_12basic_stringIcSt11char_traitsIcESaIcEEEm
00000000000db650 T _ZNSt12ctype_bynameIcEC1ERKNSt7__cxx1112basic_stringIcSt11char_traitsIcESaIcEEEm
00000000000db660 w _ZNSt14codecvt_bynameIcc11__mbstate_tEC1ERKNSt7__cxx1112basic_stringIcSt11char_traitsIcESaIcEEEm
00000000000db6f0 w _ZNSt7__cxx117collateIcEC2Em
00000000000db740 w _ZNSt7__cxx117collateIcEC1EP15__locale_structm
00000000000db780 w _ZNKSt7__cxx117collateIcE7compareEPKcS3_S3_S3_
00000000000db790 w _ZNKSt7__cxx117collateIcE9transformEPKcS3_
00000000000db7d0 w _ZNKSt7__cxx117collateIcE4hashEPKcS3_
00000000000db7e0 w _ZNSt7__cxx1114collate_bynameIcEC1EPKcm
00000000000db8b0 w _ZNSt7__cxx1114collate_bynameIcEC1ERKNS_12basic_stringIcSt11char_traitsIcESaIcEEEm
00000000000db980 w _ZSt9use_facetINSt7__cxx117collateIcEEERKT_RKSt6locale
00000000000db9d0 w _ZSt9use_facetINSt7__cxx118numpunctIcEEERKT_RKSt6locale
00000000000dba20 w _ZSt9use_facetINSt7__cxx1110moneypunctIcLb1EEEERKT_RKSt6locale
00000000000dba70 w _ZSt9use_facetINSt7__cxx1110moneypunctIcLb0EEEERKT_RKSt6locale
00000000000dbac0 w _ZSt9use_facetINSt7__cxx119money_putIcSt19ostreambuf_iteratorIcSt11char_traitsIcEEEEERKT_RKSt6locale
00000000000dbb10 w _ZSt9use_facetINSt7__cxx119money_getIcSt19istreambuf_iteratorIcSt11char_traitsIcEEEEERKT_RKSt6locale
00000000000dbb60 w _ZSt9use_facetINSt7__cxx118time_getIcSt19istreambuf_iteratorIcSt11char_traitsIcEEEEERKT_RKSt6locale
00000000000dbbb0 w _ZSt9use_facetINSt7__cxx118messagesIcEEERKT_RKSt6locale
00000000000dbc00 w _ZSt9has_facetINSt7__cxx117collateIcEEEbRKSt6locale
00000000000dbc50 w _ZSt9has_facetINSt7__cxx118numpunctIcEEEbRKSt6locale
00000000000dbca0 w _ZSt9has_facetINSt7__cxx1110moneypunctIcLb0EEEEbRKSt6locale
00000000000dbcf0 w _ZSt9has_facetINSt7__cxx119money_putIcSt19ostreambuf_iteratorIcSt11char_traitsIcEEEEEbRKSt6locale
00000000000dbd40 w _ZSt9has_facetINSt7__cxx119money_getIcSt19istreambuf_iteratorIcSt11char_traitsIcEEEEEbRKSt6locale
00000000000dbd90 w _ZSt9has_facetINSt7__cxx118time_getIcSt19istreambuf_iteratorIcSt11char_traitsIcEEEEEbRKSt6locale
00000000000dbde0 w _ZSt9has_facetINSt7__cxx118messagesIcEEEbRKSt6locale
00000000000dbe30 w _ZNKSt7__cxx118time_getIcSt19istreambuf_iteratorIcSt11char_traitsIcEEE15_M_extract_nameES4_S4_RiPPKcmRSt8ios_baseRSt12_Ios_Iostate
00000000000dc700 w _ZNKSt7__cxx118time_getIcSt19istreambuf_iteratorIcSt11char_traitsIcEEE21_M_extract_via_formatES4_S4_RSt8ios_baseRSt12_Ios_IostateP2tmPKc
00000000000ddc30 w _ZNKSt7__cxx118time_getIcSt19istreambuf_iteratorIcSt11char_traitsIcEEE11do_get_timeES4_S4_RSt8ios_baseRSt12_Ios_IostateP2tm
00000000000ddd70 w _ZNKSt7__cxx118time_getIcSt19istreambuf_iteratorIcSt11char_traitsIcEEE11do_get_dateES4_S4_RSt8ios_baseRSt12_Ios_IostateP2tm
00000000000ddeb0 w _ZNKSt7__cxx118time_getIcSt19istreambuf_iteratorIcSt11char_traitsIcEEE6do_getES4_S4_RSt8ios_baseRSt12_Ios_IostateP2tmcc
00000000000de130 w _ZNKSt7__cxx118time_getIcSt19istreambuf_iteratorIcSt11char_traitsIcEEE3getES4_S4_RSt8ios_baseRSt12_Ios_IostateP2tmcc
00000000000de3e0 w _ZNKSt7__cxx118time_getIcSt19istreambuf_iteratorIcSt11char_traitsIcEEE3getES4_S4_RSt8ios_baseRSt12_Ios_IostateP2tmPKcSD_
00000000000defc0 w _ZNKSt7__cxx1110moneypunctIwLb0EE16do_decimal_pointEv
00000000000defd0 w _ZNKSt7__cxx1110moneypunctIwLb0EE16do_thousands_sepEv
00000000000defe0 w _ZNKSt7__cxx1110moneypunctIwLb0EE14do_frac_digitsEv
00000000000deff0 w _ZNKSt7__cxx1110moneypunctIwLb0EE13do_pos_formatEv
00000000000df030 w _ZNKSt7__cxx1110moneypunctIwLb0EE13do_neg_formatEv
00000000000df070 w _ZNKSt7__cxx1110moneypunctIwLb1EE16do_decimal_pointEv
00000000000df080 w _ZNKSt7__cxx1110moneypunctIwLb1EE16do_thousands_sepEv
00000000000df090 w _ZNKSt7__cxx1110moneypunctIwLb1EE14do_frac_digitsEv
00000000000df0a0 w _ZNKSt7__cxx1110moneypunctIwLb1EE13do_pos_formatEv
00000000000df0e0 w _ZNKSt7__cxx1110moneypunctIwLb1EE13do_neg_formatEv
00000000000df120 w _ZNSt7__cxx1117moneypunct_bynameIwLb0EED2Ev
00000000000df140 w _ZNSt7__cxx1117moneypunct_bynameIwLb1EED1Ev
00000000000df160 w _ZNKSt7__cxx118numpunctIwE16do_decimal_pointEv
00000000000df170 w _ZNKSt7__cxx118numpunctIwE16do_thousands_sepEv
00000000000df180 w _ZNSt7__cxx1115numpunct_bynameIwED1Ev
00000000000df1a0 w _ZNKSt7__cxx118time_getIwSt19istreambuf_iteratorIwSt11char_traitsIwEEE13do_date_orderEv
00000000000df1b0 w _ZNKSt7__cxx117collateIwE7do_hashEPKwS3_
00000000000df1e0 w _ZNSt7__cxx119money_getIwSt19istreambuf_iteratorIwSt11char_traitsIwEEED2Ev
00000000000df200 w _ZNSt7__cxx119money_putIwSt19ostreambuf_iteratorIwSt11char_traitsIwEEED1Ev
00000000000df220 w _ZNSt7__cxx118time_getIwSt19istreambuf_iteratorIwSt11char_traitsIwEEED1Ev
00000000000df240 w _ZNSt7__cxx1115time_get_bynameIwSt19istreambuf_iteratorIwSt11char_traitsIwEEED2Ev
00000000000df260 w _ZNSt7__cxx1117moneypunct_bynameIwLb0EED0Ev
00000000000df280 w _ZNSt7__cxx1117moneypunct_bynameIwLb1EED0Ev
00000000000df2a0 w _ZNSt7__cxx119money_getIwSt19istreambuf_iteratorIwSt11char_traitsIwEEED0Ev
00000000000df2c0 w _ZNSt7__cxx119money_putIwSt19ostreambuf_iteratorIwSt11char_traitsIwEEED0Ev
00000000000df2e0 w _ZNSt7__cxx1115numpunct_bynameIwED0Ev
00000000000df300 w _ZNSt7__cxx118time_getIwSt19istreambuf_iteratorIwSt11char_traitsIwEEED0Ev
00000000000df320 w _ZNSt7__cxx1115time_get_bynameIwSt19istreambuf_iteratorIwSt11char_traitsIwEEED0Ev
00000000000df340 w _ZNSt7__cxx117collateIwED2Ev
00000000000df370 w _ZNSt7__cxx117collateIwED0Ev
00000000000df3a0 w _ZNSt7__cxx1114collate_bynameIwED1Ev
00000000000df3d0 w _ZNSt7__cxx1114collate_bynameIwED0Ev
00000000000df400 w _ZNSt7__cxx118messagesIwED2Ev
00000000000df450 w _ZNSt7__cxx118messagesIwED0Ev
00000000000df470 w _ZNSt7__cxx1115messages_bynameIwED2Ev
00000000000df490 w _ZNSt7__cxx1115messages_bynameIwED0Ev
00000000000df4b0 w _ZNKSt7__cxx117collateIwE10do_compareEPKwS3_S3_S3_
00000000000df640 w _ZNKSt7__cxx1110moneypunctIwLb1EE11do_groupingEv
00000000000df720 w _ZNKSt7__cxx1110moneypunctIwLb0EE11do_groupingEv
00000000000df800 w _ZNKSt7__cxx118numpunctIwE11do_groupingEv
00000000000df8e0 w _ZNKSt7__cxx117collateIwE12do_transformEPKwS3_
00000000000dfb80 w _ZNKSt7__cxx1110moneypunctIwLb1EE14do_curr_symbolEv
00000000000dfbd0 w _ZNKSt7__cxx1110moneypunctIwLb1EE16do_positive_signEv
00000000000dfc20 w _ZNKSt7__cxx1110moneypunctIwLb1EE16do_negative_signEv
00000000000dfc70 w _ZNKSt7__cxx1110moneypunctIwLb0EE16do_negative_signEv
00000000000dfcc0 w _ZNKSt7__cxx118numpunctIwE11do_truenameEv
00000000000dfd10 w _ZNKSt7__cxx118numpunctIwE12do_falsenameEv
00000000000dfd60 w _ZNKSt7__cxx1110moneypunctIwLb0EE14do_curr_symbolEv
00000000000dfdb0 w _ZNKSt7__cxx1110moneypunctIwLb0EE16do_positive_signEv
00000000000dfe00 w _ZNSt7__cxx1110moneypunctIwLb0EEC1Em
00000000000dfe50 w _ZNSt7__cxx1110moneypunctIwLb0EEC2EPSt18__moneypunct_cacheIwLb0EEm
00000000000dfea0 w _ZNSt7__cxx1110moneypunctIwLb0EEC1EP15__locale_structPKcm
00000000000dfef0 w _ZNKSt7__cxx1110moneypunctIwLb0EE13decimal_pointEv
00000000000dff20 w _ZNKSt7__cxx1110moneypunctIwLb0EE13thousands_sepEv
00000000000dff50 w _ZNKSt7__cxx1110moneypunctIwLb0EE8groupingEv
00000000000e0050 w _ZNKSt7__cxx1110moneypunctIwLb0EE11curr_symbolEv
00000000000e00e0 w _ZNKSt7__cxx1110moneypunctIwLb0EE13positive_signEv
00000000000e0170 w _ZNKSt7__cxx1110moneypunctIwLb0EE13negative_signEv
00000000000e0200 w _ZNKSt7__cxx1110moneypunctIwLb0EE11frac_digitsEv
00000000000e0230 w _ZNKSt7__cxx1110moneypunctIwLb0EE10pos_formatEv
00000000000e0280 w _ZNKSt7__cxx1110moneypunctIwLb0EE10neg_formatEv
00000000000e02d0 w _ZNSt7__cxx1110moneypunctIwLb1EEC2Em
00000000000e0320 w _ZNSt7__cxx1110moneypunctIwLb1EEC1EPSt18__moneypunct_cacheIwLb1EEm
00000000000e0370 w _ZNSt7__cxx1110moneypunctIwLb1EEC1EP15__locale_structPKcm
00000000000e03c0 w _ZNKSt7__cxx1110moneypunctIwLb1EE13decimal_pointEv
00000000000e03f0 w _ZNKSt7__cxx1110moneypunctIwLb1EE13thousands_sepEv
00000000000e0420 w _ZNKSt7__cxx1110moneypunctIwLb1EE8groupingEv
00000000000e0520 w _ZNKSt7__cxx1110moneypunctIwLb1EE11curr_symbolEv
00000000000e05b0 w _ZNKSt7__cxx1110moneypunctIwLb1EE13positive_signEv
00000000000e0640 w _ZNKSt7__cxx1110moneypunctIwLb1EE13negative_signEv
00000000000e06d0 w _ZNKSt7__cxx1110moneypunctIwLb1EE11frac_digitsEv
00000000000e0700 w _ZNKSt7__cxx1110moneypunctIwLb1EE10pos_formatEv
00000000000e0750 w _ZNKSt7__cxx1110moneypunctIwLb1EE10neg_formatEv
00000000000e07a0 w _ZNSt7__cxx1117moneypunct_bynameIwLb0EEC1EPKcm
00000000000e0890 w _ZNSt7__cxx1117moneypunct_bynameIwLb0EEC1ERKNS_12basic_stringIcSt11char_traitsIcESaIcEEEm
00000000000e0980 w _ZNSt7__cxx1117moneypunct_bynameIwLb1EEC1EPKcm
00000000000e0a70 w _ZNSt7__cxx1117moneypunct_bynameIwLb1EEC2ERKNS_12basic_stringIcSt11char_traitsIcESaIcEEEm
00000000000e0b60 w _ZNSt7__cxx119money_getIwSt19istreambuf_iteratorIwSt11char_traitsIwEEEC1Em
00000000000e0b80 w _ZNKSt7__cxx119money_getIwSt19istreambuf_iteratorIwSt11char_traitsIwEEE3getES4_S4_bRSt8ios_baseRSt12_Ios_IostateRe
00000000000e0ba0 w _ZNKSt7__cxx119money_getIwSt19istreambuf_iteratorIwSt11char_traitsIwEEE3getES4_S4_bRSt8ios_baseRSt12_Ios_IostateRNS_12basic_stringIwS3_SaIwEEE
00000000000e0bc0 w _ZNSt7__cxx119money_putIwSt19ostreambuf_iteratorIwSt11char_traitsIwEEEC2Em
00000000000e0be0 w _ZNKSt7__cxx119money_putIwSt19ostreambuf_iteratorIwSt11char_traitsIwEEE3putES4_bRSt8ios_basewe
00000000000e0c00 w _ZNKSt7__cxx119money_putIwSt19ostreambuf_iteratorIwSt11char_traitsIwEEE3putES4_bRSt8ios_basewRKNS_12basic_stringIwS3_SaIwEEE
00000000000e0c20 w _ZNKSt7__cxx119money_putIwSt19ostreambuf_iteratorIwSt11char_traitsIwEEE9_M_insertILb1EEES4_S4_RSt8ios_basewRKNS_12basic_stringIwS3_SaIwEEE
00000000000e1440 w _ZNKSt7__cxx119money_putIwSt19ostreambuf_iteratorIwSt11char_traitsIwEEE9_M_insertILb0EEES4_S4_RSt8ios_basewRKNS_12basic_stringIwS3_SaIwEEE
00000000000e1c60 w _ZNKSt7__cxx119money_putIwSt19ostreambuf_iteratorIwSt11char_traitsIwEEE6do_putES4_bRSt8ios_basewe
00000000000e1e60 w _ZNKSt7__cxx119money_putIwSt19ostreambuf_iteratorIwSt11char_traitsIwEEE6do_putES4_bRSt8ios_basewRKNS_12basic_stringIwS3_SaIwEEE
00000000000e1e90 w _ZNSt7__cxx118numpunctIwEC1Em
00000000000e1ee0 w _ZNSt7__cxx118numpunctIwEC2EPSt16__numpunct_cacheIwEm
00000000000e1f30 w _ZNSt7__cxx118numpunctIwEC1EP15__locale_structm
00000000000e1f80 w _ZNKSt7__cxx118numpunctIwE13decimal_pointEv
00000000000e1fb0 w _ZNKSt7__cxx118numpunctIwE13thousands_sepEv
00000000000e1fe0 w _ZNKSt7__cxx118numpunctIwE8groupingEv
00000000000e20e0 w _ZNKSt7__cxx118numpunctIwE8truenameEv
00000000000e2170 w _ZNKSt7__cxx118numpunctIwE9falsenameEv
00000000000e2200 w _ZNSt7__cxx1115numpunct_bynameIwEC1EPKcm
00000000000e22f0 w _ZNSt7__cxx1115numpunct_bynameIwEC1ERKNS_12basic_stringIcSt11char_traitsIcESaIcEEEm
00000000000e23e0 w _ZNSt7__cxx118time_getIwSt19istreambuf_iteratorIwSt11char_traitsIwEEEC2Em
00000000000e2400 w _ZNKSt7__cxx118time_getIwSt19istreambuf_iteratorIwSt11char_traitsIwEEE10date_orderEv
00000000000e2410 w _ZNKSt7__cxx118time_getIwSt19istreambuf_iteratorIwSt11char_traitsIwEEE8get_timeES4_S4_RSt8ios_baseRSt12_Ios_IostateP2tm
00000000000e2430 w _ZNKSt7__cxx118time_getIwSt19istreambuf_iteratorIwSt11char_traitsIwEEE8get_dateES4_S4_RSt8ios_baseRSt12_Ios_IostateP2tm
00000000000e2450 w _ZNKSt7__cxx118time_getIwSt19istreambuf_iteratorIwSt11char_traitsIwEEE11get_weekdayES4_S4_RSt8ios_baseRSt12_Ios_IostateP2tm
00000000000e2470 w _ZNKSt7__cxx118time_getIwSt19istreambuf_iteratorIwSt11char_traitsIwEEE13get_monthnameES4_S4_RSt8ios_baseRSt12_Ios_IostateP2tm
00000000000e2490 w _ZNKSt7__cxx118time_getIwSt19istreambuf_iteratorIwSt11char_traitsIwEEE8get_yearES4_S4_RSt8ios_baseRSt12_Ios_IostateP2tm
00000000000e24b0 w _ZNKSt7__cxx118time_getIwSt19istreambuf_iteratorIwSt11char_traitsIwEEE14_M_extract_numES4_S4_RiiimRSt8ios_baseRSt12_Ios_Iostate
00000000000e27b0 w _ZNKSt7__cxx118time_getIwSt19istreambuf_iteratorIwSt11char_traitsIwEEE11do_get_yearES4_S4_RSt8ios_baseRSt12_Ios_IostateP2tm
00000000000e2980 w _ZNKSt7__cxx118time_getIwSt19istreambuf_iteratorIwSt11char_traitsIwEEE24_M_extract_wday_or_monthES4_S4_RiPPKwmRSt8ios_baseRSt12_Ios_Iostate
00000000000e2f70 w _ZNKSt7__cxx118time_getIwSt19istreambuf_iteratorIwSt11char_traitsIwEEE14do_get_weekdayES4_S4_RSt8ios_baseRSt12_Ios_IostateP2tm
00000000000e3240 w _ZNKSt7__cxx118time_getIwSt19istreambuf_iteratorIwSt11char_traitsIwEEE16do_get_monthnameES4_S4_RSt8ios_baseRSt12_Ios_IostateP2tm
00000000000e35e0 w _ZNSt7__cxx1115time_get_bynameIwSt19istreambuf_iteratorIwSt11char_traitsIwEEEC2EPKcm
00000000000e3600 w _ZNSt7__cxx1115time_get_bynameIwSt19istreambuf_iteratorIwSt11char_traitsIwEEEC1ERKNS_12basic_stringIcS2_IcESaIcEEEm
00000000000e3620 w _ZNSt7__cxx118messagesIwEC1Em
00000000000e3670 w _ZNSt7__cxx118messagesIwEC1EP15__locale_structPKcm
00000000000e3720 w _ZNKSt7__cxx118messagesIwE4openERKNS_12basic_stringIcSt11char_traitsIcESaIcEEERKSt6locale
00000000000e3730 w _ZNKSt7__cxx118messagesIwE4openERKNS_12basic_stringIcSt11char_traitsIcESaIcEEERKSt6localePKc
00000000000e3760 w _ZNKSt7__cxx118messagesIwE3getEiiiRKNS_12basic_stringIwSt11char_traitsIwESaIwEEE
00000000000e37a0 w _ZNKSt7__cxx118messagesIwE5closeEi
00000000000e37b0 w _ZNKSt7__cxx118messagesIwE18_M_convert_to_charERKNS_12basic_stringIwSt11char_traitsIwESaIwEEE
00000000000e37c0 w _ZNKSt7__cxx118messagesIwE20_M_convert_from_charEPc
00000000000e37e0 w _ZNSt7__cxx1115messages_bynameIwEC1EPKcm
00000000000e38e0 w _ZNSt7__cxx1115messages_bynameIwEC1ERKNS_12basic_stringIcSt11char_traitsIcESaIcEEEm
00000000000e38f0 T _ZNSt12ctype_bynameIwEC1ERKNSt7__cxx1112basic_stringIcSt11char_traitsIcESaIcEEEm
00000000000e3900 w _ZNSt14codecvt_bynameIwc11__mbstate_tEC1ERKNSt7__cxx1112basic_stringIcSt11char_traitsIcESaIcEEEm
00000000000e3990 w _ZNSt7__cxx117collateIwEC1Em
00000000000e39e0 w _ZNSt7__cxx117collateIwEC1EP15__locale_structm
00000000000e3a20 w _ZNKSt7__cxx117collateIwE7compareEPKwS3_S3_S3_
00000000000e3a30 w _ZNKSt7__cxx117collateIwE9transformEPKwS3_
00000000000e3a70 w _ZNKSt7__cxx117collateIwE4hashEPKwS3_
00000000000e3a80 w _ZNSt7__cxx1114collate_bynameIwEC2EPKcm
00000000000e3b50 w _ZNSt7__cxx1114collate_bynameIwEC1ERKNS_12basic_stringIcSt11char_traitsIcESaIcEEEm
00000000000e3c20 w _ZSt9use_facetINSt7__cxx117collateIwEEERKT_RKSt6locale
00000000000e3c70 w _ZSt9use_facetINSt7__cxx118numpunctIwEEERKT_RKSt6locale
00000000000e3cc0 w _ZSt9use_facetINSt7__cxx1110moneypunctIwLb1EEEERKT_RKSt6locale
00000000000e3d10 w _ZSt9use_facetINSt7__cxx1110moneypunctIwLb0EEEERKT_RKSt6locale
00000000000e3d60 w _ZSt9use_facetINSt7__cxx119money_putIwSt19ostreambuf_iteratorIwSt11char_traitsIwEEEEERKT_RKSt6locale
00000000000e3db0 w _ZSt9use_facetINSt7__cxx119money_getIwSt19istreambuf_iteratorIwSt11char_traitsIwEEEEERKT_RKSt6locale
00000000000e3e00 w _ZSt9use_facetINSt7__cxx118time_getIwSt19istreambuf_iteratorIwSt11char_traitsIwEEEEERKT_RKSt6locale
00000000000e3e50 w _ZSt9use_facetINSt7__cxx118messagesIwEEERKT_RKSt6locale
00000000000e3ea0 w _ZSt9has_facetINSt7__cxx117collateIwEEEbRKSt6locale
00000000000e3ef0 w _ZSt9has_facetINSt7__cxx118numpunctIwEEEbRKSt6locale
00000000000e3f40 w _ZSt9has_facetINSt7__cxx1110moneypunctIwLb0EEEEbRKSt6locale
00000000000e3f90 w _ZSt9has_facetINSt7__cxx119money_putIwSt19ostreambuf_iteratorIwSt11char_traitsIwEEEEEbRKSt6locale
00000000000e3fe0 w _ZSt9has_facetINSt7__cxx119money_getIwSt19istreambuf_iteratorIwSt11char_traitsIwEEEEEbRKSt6locale
00000000000e4030 w _ZSt9has_facetINSt7__cxx118time_getIwSt19istreambuf_iteratorIwSt11char_traitsIwEEEEEbRKSt6locale
00000000000e4080 w _ZSt9has_facetINSt7__cxx118messagesIwEEEbRKSt6locale
00000000000e40d0 w _ZNKSt7__cxx118time_getIwSt19istreambuf_iteratorIwSt11char_traitsIwEEE15_M_extract_nameES4_S4_RiPPKwmRSt8ios_baseRSt12_Ios_Iostate
00000000000e4970 w _ZNKSt7__cxx118time_getIwSt19istreambuf_iteratorIwSt11char_traitsIwEEE21_M_extract_via_formatES4_S4_RSt8ios_baseRSt12_Ios_IostateP2tmPKw
00000000000e5c80 w _ZNKSt7__cxx118time_getIwSt19istreambuf_iteratorIwSt11char_traitsIwEEE11do_get_timeES4_S4_RSt8ios_baseRSt12_Ios_IostateP2tm
00000000000e5dd0 w _ZNKSt7__cxx118time_getIwSt19istreambuf_iteratorIwSt11char_traitsIwEEE11do_get_dateES4_S4_RSt8ios_baseRSt12_Ios_IostateP2tm
00000000000e5f20 w _ZNKSt7__cxx118time_getIwSt19istreambuf_iteratorIwSt11char_traitsIwEEE6do_getES4_S4_RSt8ios_baseRSt12_Ios_IostateP2tmcc
00000000000e6140 w _ZNKSt7__cxx118time_getIwSt19istreambuf_iteratorIwSt11char_traitsIwEEE3getES4_S4_RSt8ios_baseRSt12_Ios_IostateP2tmPKwSD_
00000000000e6980 w _ZNKSt7__cxx118time_getIwSt19istreambuf_iteratorIwSt11char_traitsIwEEE3getES4_S4_RSt8ios_baseRSt12_Ios_IostateP2tmcc
00000000000e6bb0 w _ZNKSt7__cxx119money_getIwSt19istreambuf_iteratorIwSt11char_traitsIwEEE10_M_extractILb1EEES4_S4_S4_RSt8ios_baseRSt12_Ios_IostateRNS_12basic_stringIcS2_IcESaIcEEE
00000000000e81c0 w _ZNKSt7__cxx119money_getIwSt19istreambuf_iteratorIwSt11char_traitsIwEEE10_M_extractILb0EEES4_S4_S4_RSt8ios_baseRSt12_Ios_IostateRNS_12basic_stringIcS2_IcESaIcEEE
00000000000e97d0 w _ZNKSt7__cxx119money_getIwSt19istreambuf_iteratorIwSt11char_traitsIwEEE6do_getES4_S4_bRSt8ios_baseRSt12_Ios_IostateRe
00000000000e98f0 w _ZNKSt7__cxx119money_getIwSt19istreambuf_iteratorIwSt11char_traitsIwEEE6do_getES4_S4_bRSt8ios_baseRSt12_Ios_IostateRNS_12basic_stringIwS3_SaIwEEE
00000000000e9a80 w _ZN9__gnu_cxx18stdio_sync_filebufIcSt11char_traitsIcEED1Ev
00000000000e9aa0 w _ZN9__gnu_cxx18stdio_sync_filebufIcSt11char_traitsIcEED0Ev
00000000000e9ad0 w _ZN9__gnu_cxx18stdio_sync_filebufIwSt11char_traitsIwEED1Ev
00000000000e9af0 w _ZN9__gnu_cxx18stdio_sync_filebufIwSt11char_traitsIwEED0Ev
00000000000e9b20 w _ZN9__gnu_cxx18stdio_sync_filebufIcSt11char_traitsIcEE5uflowEv
00000000000e9b40 w _ZN9__gnu_cxx18stdio_sync_filebufIcSt11char_traitsIcEE9underflowEv
00000000000e9b60 w _ZN9__gnu_cxx18stdio_sync_filebufIcSt11char_traitsIcEE9pbackfailEi
00000000000e9b90 w _ZN9__gnu_cxx18stdio_sync_filebufIcSt11char_traitsIcEE4syncEv
00000000000e9ba0 w _ZN9__gnu_cxx18stdio_sync_filebufIwSt11char_traitsIwEE4syncEv
00000000000e9bb0 w _ZN9__gnu_cxx18stdio_sync_filebufIcSt11char_traitsIcEE7seekoffElSt12_Ios_SeekdirSt13_Ios_Openmode
00000000000e9c20 w _ZN9__gnu_cxx18stdio_sync_filebufIwSt11char_traitsIwEE7seekoffElSt12_Ios_SeekdirSt13_Ios_Openmode
00000000000e9c90 w _ZN9__gnu_cxx18stdio_sync_filebufIwSt11char_traitsIwEE5uflowEv
00000000000e9cb0 w _ZN9__gnu_cxx18stdio_sync_filebufIwSt11char_traitsIwEE6xsgetnEPwl
00000000000e9d30 w _ZN9__gnu_cxx18stdio_sync_filebufIwSt11char_traitsIwEE9underflowEv
00000000000e9d50 w _ZN9__gnu_cxx18stdio_sync_filebufIwSt11char_traitsIwEE9pbackfailEj
00000000000e9d90 w _ZN9__gnu_cxx18stdio_sync_filebufIwSt11char_traitsIwEE6xsputnEPKwl
00000000000e9de0 w _ZN9__gnu_cxx18stdio_sync_filebufIcSt11char_traitsIcEE6xsputnEPKcl
00000000000e9e00 w _ZN9__gnu_cxx18stdio_sync_filebufIcSt11char_traitsIcEE6xsgetnEPcl
00000000000e9e50 w _ZN9__gnu_cxx18stdio_sync_filebufIwSt11char_traitsIwEE8overflowEj
00000000000e9e90 w _ZN9__gnu_cxx18stdio_sync_filebufIcSt11char_traitsIcEE8overflowEi
00000000000e9ed0 w _ZN9__gnu_cxx18stdio_sync_filebufIcSt11char_traitsIcEE7seekposESt4fposI11__mbstate_tESt13_Ios_Openmode
00000000000e9f50 w _ZN9__gnu_cxx18stdio_sync_filebufIwSt11char_traitsIwEE7seekposESt4fposI11__mbstate_tESt13_Ios_Openmode
00000000000ea150 w _ZN9__gnu_cxx18stdio_sync_filebufIcSt11char_traitsIcEEC2EP8_IO_FILE
00000000000ea1d0 w _ZN9__gnu_cxx18stdio_sync_filebufIcSt11char_traitsIcEEC1EOS3_
00000000000ea220 w _ZN9__gnu_cxx18stdio_sync_filebufIcSt11char_traitsIcEEaSEOS3_
00000000000ea260 w _ZN9__gnu_cxx18stdio_sync_filebufIcSt11char_traitsIcEE4fileEv
00000000000ea330 w _ZN9__gnu_cxx18stdio_sync_filebufIwSt11char_traitsIwEEC1EP8_IO_FILE
00000000000ea3b0 w _ZN9__gnu_cxx18stdio_sync_filebufIwSt11char_traitsIwEEC1EOS3_
00000000000ea400 w _ZN9__gnu_cxx18stdio_sync_filebufIwSt11char_traitsIwEEaSEOS3_
00000000000ea440 w _ZN9__gnu_cxx18stdio_sync_filebufIwSt11char_traitsIwEE4fileEv
00000000000ea450 w _ZNSt13basic_filebufIcSt11char_traitsIcEE6setbufEPcl
00000000000ea4b0 w _ZNSt13basic_filebufIwSt11char_traitsIwEE6setbufEPwl
00000000000ea510 w _ZNSt13basic_filebufIcSt11char_traitsIcEE9showmanycEv
00000000000ea5a0 w _ZNSt13basic_filebufIwSt11char_traitsIwEE9showmanycEv
00000000000ea630 w _ZNSt13basic_filebufIwSt11char_traitsIwEE4syncEv
00000000000ea660 w _ZNSt13basic_filebufIcSt11char_traitsIcEE4syncEv
00000000000ea690 w _ZNSt13basic_filebufIcSt11char_traitsIcEE9pbackfailEi
00000000000ea810 w _ZNSt13basic_filebufIwSt11char_traitsIwEE6xsgetnEPwl
00000000000eaaf0 w _ZNSt13basic_filebufIcSt11char_traitsIcEE6xsgetnEPcl
00000000000eadd0 w _ZNSt13basic_filebufIcSt11char_traitsIcEE6xsputnEPKcl
00000000000eaf30 w _ZNSt13basic_filebufIwSt11char_traitsIwEE6xsputnEPKwl
00000000000eb0a0 w _ZNSt13basic_filebufIwSt11char_traitsIwEE9pbackfailEj
00000000000eb220 w _ZNSt13basic_filebufIcSt11char_traitsIcEE9underflowEv
00000000000eb7b0 w _ZNSt13basic_filebufIwSt11char_traitsIwEE9underflowEv
00000000000ebd30 w _ZNSt13basic_filebufIcSt11char_traitsIcEE15_M_create_pbackEv
00000000000ebd80 w _ZNSt13basic_filebufIcSt11char_traitsIcEE16_M_destroy_pbackEv
00000000000ebdd0 w _ZNSt13basic_filebufIcSt11char_traitsIcEEC2Ev
00000000000ebf90 w _ZNSt13basic_filebufIcSt11char_traitsIcEEC1EOS2_
00000000000ec1a0 w _ZNSt13basic_filebufIcSt11char_traitsIcEE4swapERS2_
00000000000ec430 w _ZNKSt13basic_filebufIcSt11char_traitsIcEE7is_openEv
00000000000ec440 w _ZNSt13basic_filebufIcSt11char_traitsIcEE27_M_allocate_internal_bufferEv
00000000000ec480 w _ZNSt13basic_filebufIcSt11char_traitsIcEE26_M_destroy_internal_bufferEv
00000000000ec4f0 w _ZNSt13basic_filebufIcSt11char_traitsIcEE22_M_convert_to_externalEPcl
00000000000ec670 w _ZNSt13basic_filebufIcSt11char_traitsIcEE14_M_get_ext_posER11__mbstate_t
00000000000ec6e0 w _ZNSt13basic_filebufIcSt11char_traitsIcEE19_M_terminate_outputEv
00000000000ec850 w _ZNSt13basic_filebufIcSt11char_traitsIcEE7_M_seekElSt12_Ios_Seekdir11__mbstate_t
00000000000ec940 w _ZNSt13basic_filebufIcSt11char_traitsIcEE8overflowEi
00000000000ecbc0 w _ZNSt13basic_filebufIcSt11char_traitsIcEE7seekoffElSt12_Ios_SeekdirSt13_Ios_Openmode
00000000000ecde0 w _ZNSt13basic_filebufIcSt11char_traitsIcEE7seekposESt4fposI11__mbstate_tESt13_Ios_Openmode
00000000000eceb0 w _ZNSt13basic_filebufIcSt11char_traitsIcEE5imbueERKSt6locale
00000000000ed0f0 w _ZNSt13basic_filebufIcSt11char_traitsIcEE13_M_set_bufferEl
00000000000ed170 w _ZNSt14basic_ifstreamIcSt11char_traitsIcEEC2EOS2_
00000000000ed270 w _ZNSt14basic_ifstreamIcSt11char_traitsIcEEC1EOS2_
00000000000ed3d0 w _ZNSt14basic_ifstreamIcSt11char_traitsIcEE4swapERS2_
00000000000ed4a0 w _ZNKSt14basic_ifstreamIcSt11char_traitsIcEE5rdbufEv
00000000000ed4b0 w _ZNSt14basic_ifstreamIcSt11char_traitsIcEE7is_openEv
00000000000ed4c0 w _ZNSt14basic_ofstreamIcSt11char_traitsIcEEC2EOS2_
00000000000ed5b0 w _ZNSt14basic_ofstreamIcSt11char_traitsIcEEC1EOS2_
00000000000ed700 w _ZNSt14basic_ofstreamIcSt11char_traitsIcEE4swapERS2_
00000000000ed7c0 w _ZNKSt14basic_ofstreamIcSt11char_traitsIcEE5rdbufEv
00000000000ed7d0 w _ZNSt14basic_ofstreamIcSt11char_traitsIcEE7is_openEv
00000000000ed7e0 w _ZNSt13basic_fstreamIcSt11char_traitsIcEEC2EOS2_
00000000000ed950 w _ZNSt13basic_fstreamIcSt11char_traitsIcEEC1EOS2_
00000000000edab0 w _ZNSt13basic_fstreamIcSt11char_traitsIcEE4swapERS2_
00000000000edb80 w _ZNKSt13basic_fstreamIcSt11char_traitsIcEE5rdbufEv
00000000000edb90 w _ZNSt13basic_fstreamIcSt11char_traitsIcEE7is_openEv
00000000000edba0 w _ZNSt13basic_filebufIwSt11char_traitsIwEE15_M_create_pbackEv
00000000000edbf0 w _ZNSt13basic_filebufIwSt11char_traitsIwEE16_M_destroy_pbackEv
00000000000edc40 w _ZNSt13basic_filebufIwSt11char_traitsIwEEC1Ev
00000000000ede00 w _ZNSt13basic_filebufIwSt11char_traitsIwEEC1EOS2_
00000000000ee010 w _ZNSt13basic_filebufIwSt11char_traitsIwEE4swapERS2_
00000000000ee2a0 w _ZNKSt13basic_filebufIwSt11char_traitsIwEE7is_openEv
00000000000ee2b0 w _ZNSt13basic_filebufIwSt11char_traitsIwEE27_M_allocate_internal_bufferEv
00000000000ee300 w _ZNSt13basic_filebufIwSt11char_traitsIwEE26_M_destroy_internal_bufferEv
00000000000ee370 w _ZNSt13basic_filebufIwSt11char_traitsIwEE22_M_convert_to_externalEPwl
00000000000ee4f0 w _ZNSt13basic_filebufIwSt11char_traitsIwEE14_M_get_ext_posER11__mbstate_t
00000000000ee560 w _ZNSt13basic_filebufIwSt11char_traitsIwEE19_M_terminate_outputEv
00000000000ee6d0 w _ZNSt13basic_filebufIwSt11char_traitsIwEE7_M_seekElSt12_Ios_Seekdir11__mbstate_t
00000000000ee7c0 w _ZNSt13basic_filebufIwSt11char_traitsIwEE8overflowEj
00000000000eea40 w _ZNSt13basic_filebufIwSt11char_traitsIwEE7seekoffElSt12_Ios_SeekdirSt13_Ios_Openmode
00000000000eec60 w _ZNSt13basic_filebufIwSt11char_traitsIwEE7seekposESt4fposI11__mbstate_tESt13_Ios_Openmode
00000000000eed30 w _ZNSt13basic_filebufIwSt11char_traitsIwEE5imbueERKSt6locale
00000000000eef70 w _ZNSt13basic_filebufIwSt11char_traitsIwEE13_M_set_bufferEl
00000000000eeff0 w _ZNSt14basic_ifstreamIwSt11char_traitsIwEEC2EOS2_
00000000000ef0f0 w _ZNSt14basic_ifstreamIwSt11char_traitsIwEEC1EOS2_
00000000000ef250 w _ZNSt14basic_ifstreamIwSt11char_traitsIwEE4swapERS2_
00000000000ef320 w _ZNKSt14basic_ifstreamIwSt11char_traitsIwEE5rdbufEv
00000000000ef330 w _ZNSt14basic_ifstreamIwSt11char_traitsIwEE7is_openEv
00000000000ef340 w _ZNSt14basic_ofstreamIwSt11char_traitsIwEEC2EOS2_
00000000000ef430 w _ZNSt14basic_ofstreamIwSt11char_traitsIwEEC1EOS2_
00000000000ef580 w _ZNSt14basic_ofstreamIwSt11char_traitsIwEE4swapERS2_
00000000000ef640 w _ZNKSt14basic_ofstreamIwSt11char_traitsIwEE5rdbufEv
00000000000ef650 w _ZNSt14basic_ofstreamIwSt11char_traitsIwEE7is_openEv
00000000000ef660 w _ZNSt13basic_fstreamIwSt11char_traitsIwEEC2EOS2_
00000000000ef7d0 w _ZNSt13basic_fstreamIwSt11char_traitsIwEEC1EOS2_
00000000000ef930 w _ZNSt13basic_fstreamIwSt11char_traitsIwEE4swapERS2_
00000000000efa00 w _ZNKSt13basic_fstreamIwSt11char_traitsIwEE5rdbufEv
00000000000efa10 w _ZNSt13basic_fstreamIwSt11char_traitsIwEE7is_openEv
00000000000efaa0 w _ZNSt13basic_filebufIcSt11char_traitsIcEE5closeEv
00000000000efbd0 w _ZNSt13basic_filebufIcSt11char_traitsIcEED1Ev
00000000000efc10 w _ZNSt14basic_ifstreamIcSt11char_traitsIcEEC2Ev
00000000000efcb0 w _ZNSt14basic_ifstreamIcSt11char_traitsIcEEC1Ev
00000000000efdb0 w _ZNSt14basic_ofstreamIcSt11char_traitsIcEEC2Ev
00000000000efe40 w _ZNSt14basic_ofstreamIcSt11char_traitsIcEEC1Ev
00000000000eff40 w _ZNSt13basic_fstreamIcSt11char_traitsIcEEC2Ev
00000000000f0060 w _ZNSt13basic_fstreamIcSt11char_traitsIcEEC1Ev
00000000000f0190 w _ZNSt13basic_filebufIcSt11char_traitsIcEEaSEOS2_
00000000000f0360 w _ZNSt14basic_ifstreamIcSt11char_traitsIcEEaSEOS2_
00000000000f0430 w _ZNSt13basic_fstreamIcSt11char_traitsIcEEaSEOS2_
00000000000f0500 w _ZNSt14basic_ofstreamIcSt11char_traitsIcEEaSEOS2_
00000000000f05c0 w _ZNSt14basic_ifstreamIcSt11char_traitsIcEE5closeEv
00000000000f05f0 w _ZNSt14basic_ofstreamIcSt11char_traitsIcEE5closeEv
00000000000f0620 w _ZNSt13basic_fstreamIcSt11char_traitsIcEE5closeEv
00000000000f0650 w _ZNSt13basic_filebufIcSt11char_traitsIcEE4openEPKcSt13_Ios_Openmode
00000000000f0760 w _ZNSt13basic_filebufIcSt11char_traitsIcEE4openERKNSt7__cxx1112basic_stringIcS1_SaIcEEESt13_Ios_Openmode
00000000000f0770 w _ZNSt14basic_ifstreamIcSt11char_traitsIcEE4openERKNSt7__cxx1112basic_stringIcS1_SaIcEEESt13_Ios_Openmode
00000000000f07c0 w _ZNSt14basic_ofstreamIcSt11char_traitsIcEE4openERKNSt7__cxx1112basic_stringIcS1_SaIcEEESt13_Ios_Openmode
00000000000f0810 w _ZNSt13basic_fstreamIcSt11char_traitsIcEE4openERKNSt7__cxx1112basic_stringIcS1_SaIcEEESt13_Ios_Openmode
00000000000f0860 w _ZNSt14basic_ifstreamIcSt11char_traitsIcEE4openEPKcSt13_Ios_Openmode
00000000000f08b0 w _ZNSt14basic_ofstreamIcSt11char_traitsIcEE4openEPKcSt13_Ios_Openmode
00000000000f0900 w _ZNSt13basic_fstreamIcSt11char_traitsIcEE4openEPKcSt13_Ios_Openmode
00000000000f0940 w _ZNSt13basic_fstreamIcSt11char_traitsIcEEC1EPKcSt13_Ios_Openmode
00000000000f0ab0 w _ZNSt13basic_fstreamIcSt11char_traitsIcEEC1ERKNSt7__cxx1112basic_stringIcS1_SaIcEEESt13_Ios_Openmode
00000000000f0c20 w _ZNSt13basic_fstreamIcSt11char_traitsIcEEC2EPKcSt13_Ios_Openmode
00000000000f0d80 w _ZNSt13basic_fstreamIcSt11char_traitsIcEEC2ERKNSt7__cxx1112basic_stringIcS1_SaIcEEESt13_Ios_Openmode
00000000000f0ee0 w _ZNSt14basic_ofstreamIcSt11char_traitsIcEEC2EPKcSt13_Ios_Openmode
00000000000f0fc0 w _ZNSt14basic_ofstreamIcSt11char_traitsIcEEC2ERKNSt7__cxx1112basic_stringIcS1_SaIcEEESt13_Ios_Openmode
00000000000f10a0 w _ZNSt14basic_ofstreamIcSt11char_traitsIcEEC1EPKcSt13_Ios_Openmode
00000000000f11e0 w _ZNSt14basic_ofstreamIcSt11char_traitsIcEEC1ERKNSt7__cxx1112basic_stringIcS1_SaIcEEESt13_Ios_Openmode
00000000000f1320 w _ZNSt14basic_ifstreamIcSt11char_traitsIcEEC1EPKcSt13_Ios_Openmode
00000000000f1460 w _ZNSt14basic_ifstreamIcSt11char_traitsIcEEC1ERKNSt7__cxx1112basic_stringIcS1_SaIcEEESt13_Ios_Openmode
00000000000f15a0 w _ZNSt14basic_ifstreamIcSt11char_traitsIcEEC2EPKcSt13_Ios_Openmode
00000000000f1690 w _ZNSt14basic_ifstreamIcSt11char_traitsIcEEC2ERKNSt7__cxx1112basic_stringIcS1_SaIcEEESt13_Ios_Openmode
00000000000f1780 w _ZNSt14basic_ofstreamIcSt11char_traitsIcEED0Ev
00000000000f1800 w _ZTv0_n24_NSt14basic_ofstreamIcSt11char_traitsIcEED0Ev
00000000000f1810 w _ZNSt14basic_ifstreamIcSt11char_traitsIcEED0Ev
00000000000f1890 w _ZTv0_n24_NSt14basic_ifstreamIcSt11char_traitsIcEED0Ev
00000000000f18a0 w _ZNSt13basic_fstreamIcSt11char_traitsIcEED0Ev
00000000000f1930 w _ZThn16_NSt13basic_fstreamIcSt11char_traitsIcEED0Ev
00000000000f1940 w _ZTv0_n24_NSt13basic_fstreamIcSt11char_traitsIcEED0Ev
00000000000f1950 w _ZNSt13basic_filebufIcSt11char_traitsIcEED0Ev
00000000000f1990 w _ZNSt14basic_ofstreamIcSt11char_traitsIcEED1Ev
00000000000f1a10 w _ZTv0_n24_NSt14basic_ofstreamIcSt11char_traitsIcEED1Ev
00000000000f1a20 w _ZNSt14basic_ifstreamIcSt11char_traitsIcEED1Ev
00000000000f1aa0 w _ZTv0_n24_NSt14basic_ifstreamIcSt11char_traitsIcEED1Ev
00000000000f1ab0 w _ZNSt14basic_ofstreamIcSt11char_traitsIcEED2Ev
00000000000f1b30 w _ZNSt14basic_ifstreamIcSt11char_traitsIcEED2Ev
00000000000f1bb0 w _ZNSt13basic_fstreamIcSt11char_traitsIcEED1Ev
00000000000f1c30 w _ZThn16_NSt13basic_fstreamIcSt11char_traitsIcEED1Ev
00000000000f1c40 w _ZTv0_n24_NSt13basic_fstreamIcSt11char_traitsIcEED1Ev
00000000000f1c50 w _ZNSt13basic_fstreamIcSt11char_traitsIcEED2Ev
00000000000f1d80 w _ZNSt13basic_filebufIwSt11char_traitsIwEE5closeEv
00000000000f1eb0 w _ZNSt13basic_filebufIwSt11char_traitsIwEED2Ev
00000000000f1ef0 w _ZNSt14basic_ifstreamIwSt11char_traitsIwEEC2Ev
00000000000f1f90 w _ZNSt14basic_ifstreamIwSt11char_traitsIwEEC1Ev
00000000000f2090 w _ZNSt14basic_ofstreamIwSt11char_traitsIwEEC2Ev
00000000000f2120 w _ZNSt14basic_ofstreamIwSt11char_traitsIwEEC1Ev
00000000000f2220 w _ZNSt13basic_fstreamIwSt11char_traitsIwEEC2Ev
00000000000f2340 w _ZNSt13basic_fstreamIwSt11char_traitsIwEEC1Ev
00000000000f2470 w _ZNSt13basic_filebufIwSt11char_traitsIwEEaSEOS2_
00000000000f2640 w _ZNSt14basic_ifstreamIwSt11char_traitsIwEEaSEOS2_
00000000000f2710 w _ZNSt13basic_fstreamIwSt11char_traitsIwEEaSEOS2_
00000000000f27e0 w _ZNSt14basic_ofstreamIwSt11char_traitsIwEEaSEOS2_
00000000000f28a0 w _ZNSt14basic_ifstreamIwSt11char_traitsIwEE5closeEv
00000000000f28d0 w _ZNSt14basic_ofstreamIwSt11char_traitsIwEE5closeEv
00000000000f2900 w _ZNSt13basic_fstreamIwSt11char_traitsIwEE5closeEv
00000000000f2930 w _ZNSt13basic_filebufIwSt11char_traitsIwEE4openEPKcSt13_Ios_Openmode
00000000000f2a40 w _ZNSt13basic_filebufIwSt11char_traitsIwEE4openERKNSt7__cxx1112basic_stringIcS0_IcESaIcEEESt13_Ios_Openmode
00000000000f2a50 w _ZNSt14basic_ifstreamIwSt11char_traitsIwEE4openERKNSt7__cxx1112basic_stringIcS0_IcESaIcEEESt13_Ios_Openmode
00000000000f2aa0 w _ZNSt14basic_ofstreamIwSt11char_traitsIwEE4openERKNSt7__cxx1112basic_stringIcS0_IcESaIcEEESt13_Ios_Openmode
00000000000f2af0 w _ZNSt13basic_fstreamIwSt11char_traitsIwEE4openERKNSt7__cxx1112basic_stringIcS0_IcESaIcEEESt13_Ios_Openmode
00000000000f2b40 w _ZNSt14basic_ifstreamIwSt11char_traitsIwEE4openEPKcSt13_Ios_Openmode
00000000000f2b90 w _ZNSt14basic_ofstreamIwSt11char_traitsIwEE4openEPKcSt13_Ios_Openmode
00000000000f2be0 w _ZNSt13basic_fstreamIwSt11char_traitsIwEE4openEPKcSt13_Ios_Openmode
00000000000f2c20 w _ZNSt13basic_fstreamIwSt11char_traitsIwEEC1EPKcSt13_Ios_Openmode
00000000000f2d90 w _ZNSt13basic_fstreamIwSt11char_traitsIwEEC1ERKNSt7__cxx1112basic_stringIcS0_IcESaIcEEESt13_Ios_Openmode
00000000000f2f00 w _ZNSt13basic_fstreamIwSt11char_traitsIwEEC2EPKcSt13_Ios_Openmode
00000000000f3060 w _ZNSt13basic_fstreamIwSt11char_traitsIwEEC2ERKNSt7__cxx1112basic_stringIcS0_IcESaIcEEESt13_Ios_Openmode
00000000000f31c0 w _ZNSt14basic_ofstreamIwSt11char_traitsIwEEC2EPKcSt13_Ios_Openmode
00000000000f32a0 w _ZNSt14basic_ofstreamIwSt11char_traitsIwEEC2ERKNSt7__cxx1112basic_stringIcS0_IcESaIcEEESt13_Ios_Openmode
00000000000f3380 w _ZNSt14basic_ofstreamIwSt11char_traitsIwEEC1EPKcSt13_Ios_Openmode
00000000000f34c0 w _ZNSt14basic_ofstreamIwSt11char_traitsIwEEC1ERKNSt7__cxx1112basic_stringIcS0_IcESaIcEEESt13_Ios_Openmode
00000000000f3600 w _ZNSt14basic_ifstreamIwSt11char_traitsIwEEC1EPKcSt13_Ios_Openmode
00000000000f3750 w _ZNSt14basic_ifstreamIwSt11char_traitsIwEEC1ERKNSt7__cxx1112basic_stringIcS0_IcESaIcEEESt13_Ios_Openmode
00000000000f38a0 w _ZNSt14basic_ifstreamIwSt11char_traitsIwEEC2EPKcSt13_Ios_Openmode
00000000000f3990 w _ZNSt14basic_ifstreamIwSt11char_traitsIwEEC2ERKNSt7__cxx1112basic_stringIcS0_IcESaIcEEESt13_Ios_Openmode
00000000000f3a80 w _ZNSt13basic_filebufIwSt11char_traitsIwEED0Ev
00000000000f3ac0 w _ZNSt14basic_ofstreamIwSt11char_traitsIwEED0Ev
00000000000f3b40 w _ZTv0_n24_NSt14basic_ofstreamIwSt11char_traitsIwEED0Ev
00000000000f3b50 w _ZNSt14basic_ifstreamIwSt11char_traitsIwEED0Ev
00000000000f3bd0 w _ZTv0_n24_NSt14basic_ifstreamIwSt11char_traitsIwEED0Ev
00000000000f3be0 w _ZNSt13basic_fstreamIwSt11char_traitsIwEED0Ev
00000000000f3c70 w _ZThn16_NSt13basic_fstreamIwSt11char_traitsIwEED0Ev
00000000000f3c80 w _ZTv0_n24_NSt13basic_fstreamIwSt11char_traitsIwEED0Ev
00000000000f3c90 w _ZNSt14basic_ofstreamIwSt11char_traitsIwEED1Ev
00000000000f3d10 w _ZTv0_n24_NSt14basic_ofstreamIwSt11char_traitsIwEED1Ev
00000000000f3d20 w _ZNSt14basic_ifstreamIwSt11char_traitsIwEED1Ev
00000000000f3da0 w _ZTv0_n24_NSt14basic_ifstreamIwSt11char_traitsIwEED1Ev
00000000000f3db0 w _ZNSt14basic_ofstreamIwSt11char_traitsIwEED2Ev
00000000000f3e30 w _ZNSt14basic_ifstreamIwSt11char_traitsIwEED2Ev
00000000000f3eb0 w _ZNSt13basic_fstreamIwSt11char_traitsIwEED1Ev
00000000000f3f30 w _ZThn16_NSt13basic_fstreamIwSt11char_traitsIwEED1Ev
00000000000f3f40 w _ZTv0_n24_NSt13basic_fstreamIwSt11char_traitsIwEED1Ev
00000000000f3f50 w _ZNSt13basic_fstreamIwSt11char_traitsIwEED2Ev
00000000000f4000 w _ZNSt9basic_iosIcSt11char_traitsIcEED2Ev
00000000000f4020 w _ZNSt9basic_iosIwSt11char_traitsIwEED2Ev
00000000000f4040 w _ZNSt9basic_iosIcSt11char_traitsIcEED0Ev
00000000000f4060 w _ZNSt9basic_iosIwSt11char_traitsIwEED0Ev
00000000000f4080 w _ZNKSt9basic_iosIcSt11char_traitsIcEEcvbEv
00000000000f4090 w _ZNKSt9basic_iosIcSt11char_traitsIcEEntEv
00000000000f40a0 w _ZNKSt9basic_iosIcSt11char_traitsIcEE7rdstateEv
00000000000f40b0 w _ZNSt9basic_iosIcSt11char_traitsIcEE5clearESt12_Ios_Iostate
00000000000f40e0 w _ZNSt9basic_iosIcSt11char_traitsIcEE8setstateESt12_Ios_Iostate
00000000000f40f0 w _ZNSt9basic_iosIcSt11char_traitsIcEE11_M_setstateESt12_Ios_Iostate
00000000000f4100 w _ZNKSt9basic_iosIcSt11char_traitsIcEE4goodEv
00000000000f4110 w _ZNKSt9basic_iosIcSt11char_traitsIcEE3eofEv
00000000000f4120 w _ZNKSt9basic_iosIcSt11char_traitsIcEE4failEv
00000000000f4130 w _ZNKSt9basic_iosIcSt11char_traitsIcEE3badEv
00000000000f4140 w _ZNKSt9basic_iosIcSt11char_traitsIcEE10exceptionsEv
00000000000f4150 w _ZNSt9basic_iosIcSt11char_traitsIcEE10exceptionsESt12_Ios_Iostate
00000000000f4160 w _ZNKSt9basic_iosIcSt11char_traitsIcEE3tieEv
00000000000f4170 w _ZNSt9basic_iosIcSt11char_traitsIcEE3tieEPSo
00000000000f4180 w _ZNKSt9basic_iosIcSt11char_traitsIcEE5rdbufEv
00000000000f4190 w _ZNSt9basic_iosIcSt11char_traitsIcEE5rdbufEPSt15basic_streambufIcS1_E
00000000000f41b0 w _ZNKSt9basic_iosIcSt11char_traitsIcEE4fillEv
00000000000f4230 w _ZNSt9basic_iosIcSt11char_traitsIcEE4fillEc
00000000000f42c0 w _ZNKSt9basic_iosIcSt11char_traitsIcEE6narrowEcc
00000000000f4330 w _ZNKSt9basic_iosIcSt11char_traitsIcEE5widenEc
00000000000f4390 w _ZNSt9basic_iosIcSt11char_traitsIcEEC1Ev
00000000000f43f0 w _ZNSt9basic_iosIcSt11char_traitsIcEE9set_rdbufEPSt15basic_streambufIcS1_E
00000000000f4400 w _ZNSt9basic_iosIcSt11char_traitsIcEE15_M_cache_localeERKSt6locale
00000000000f44b0 w _ZNSt9basic_iosIcSt11char_traitsIcEE5imbueERKSt6locale
00000000000f4590 w _ZNSt9basic_iosIcSt11char_traitsIcEE4initEPSt15basic_streambufIcS1_E
00000000000f45f0 w _ZNSt9basic_iosIcSt11char_traitsIcEEC2EPSt15basic_streambufIcS1_E
00000000000f4680 w _ZNSt9basic_iosIcSt11char_traitsIcEE4moveERS2_
00000000000f46f0 w _ZNSt9basic_iosIcSt11char_traitsIcEE7copyfmtERKS2_
00000000000f49b0 w _ZNSt9basic_iosIcSt11char_traitsIcEE4swapERS2_
00000000000f4a40 w _ZNSt9basic_iosIcSt11char_traitsIcEE4moveEOS2_
00000000000f4ab0 w _ZNKSt9basic_iosIwSt11char_traitsIwEEcvbEv
00000000000f4ac0 w _ZNKSt9basic_iosIwSt11char_traitsIwEEntEv
00000000000f4ad0 w _ZNKSt9basic_iosIwSt11char_traitsIwEE7rdstateEv
00000000000f4ae0 w _ZNSt9basic_iosIwSt11char_traitsIwEE5clearESt12_Ios_Iostate
00000000000f4b10 w _ZNSt9basic_iosIwSt11char_traitsIwEE8setstateESt12_Ios_Iostate
00000000000f4b20 w _ZNSt9basic_iosIwSt11char_traitsIwEE11_M_setstateESt12_Ios_Iostate
00000000000f4b30 w _ZNKSt9basic_iosIwSt11char_traitsIwEE4goodEv
00000000000f4b40 w _ZNKSt9basic_iosIwSt11char_traitsIwEE3eofEv
00000000000f4b50 w _ZNKSt9basic_iosIwSt11char_traitsIwEE4failEv
00000000000f4b60 w _ZNKSt9basic_iosIwSt11char_traitsIwEE3badEv
00000000000f4b70 w _ZNKSt9basic_iosIwSt11char_traitsIwEE10exceptionsEv
00000000000f4b80 w _ZNSt9basic_iosIwSt11char_traitsIwEE10exceptionsESt12_Ios_Iostate
00000000000f4b90 w _ZNKSt9basic_iosIwSt11char_traitsIwEE3tieEv
00000000000f4ba0 w _ZNSt9basic_iosIwSt11char_traitsIwEE3tieEPSt13basic_ostreamIwS1_E
00000000000f4bb0 w _ZNKSt9basic_iosIwSt11char_traitsIwEE5rdbufEv
00000000000f4bc0 w _ZNSt9basic_iosIwSt11char_traitsIwEE5rdbufEPSt15basic_streambufIwS1_E
00000000000f4be0 w _ZNKSt9basic_iosIwSt11char_traitsIwEE4fillEv
00000000000f4c20 w _ZNSt9basic_iosIwSt11char_traitsIwEE4fillEw
00000000000f4c80 w _ZNKSt9basic_iosIwSt11char_traitsIwEE6narrowEwc
00000000000f4ca0 w _ZNKSt9basic_iosIwSt11char_traitsIwEE5widenEc
00000000000f4cc0 w _ZNSt9basic_iosIwSt11char_traitsIwEEC1Ev
00000000000f4d30 w _ZNSt9basic_iosIwSt11char_traitsIwEE9set_rdbufEPSt15basic_streambufIwS1_E
00000000000f4d40 w _ZNSt9basic_iosIwSt11char_traitsIwEE15_M_cache_localeERKSt6locale
00000000000f4df0 w _ZNSt9basic_iosIwSt11char_traitsIwEE5imbueERKSt6locale
00000000000f4ed0 w _ZNSt9basic_iosIwSt11char_traitsIwEE4initEPSt15basic_streambufIwS1_E
00000000000f4f30 w _ZNSt9basic_iosIwSt11char_traitsIwEEC2EPSt15basic_streambufIwS1_E
00000000000f4fc0 w _ZNSt9basic_iosIwSt11char_traitsIwEE4moveERS2_
00000000000f5030 w _ZNSt9basic_iosIwSt11char_traitsIwEE7copyfmtERKS2_
00000000000f52a0 w _ZNSt9basic_iosIwSt11char_traitsIwEE4swapERS2_
00000000000f5330 w _ZNSt9basic_iosIwSt11char_traitsIwEE4moveEOS2_
00000000000f53a0 w _ZNSdD1Ev
00000000000f53c0 w _ZThn16_NSdD1Ev
00000000000f53d0 w _ZTv0_n24_NSdD1Ev
00000000000f53e0 w _ZNSdD0Ev
00000000000f5410 w _ZThn16_NSdD0Ev
00000000000f5420 w _ZTv0_n24_NSdD0Ev
00000000000f5430 w _ZNSt14basic_iostreamIwSt11char_traitsIwEED1Ev
00000000000f5450 w _ZThn16_NSt14basic_iostreamIwSt11char_traitsIwEED1Ev
00000000000f5460 w _ZTv0_n24_NSt14basic_iostreamIwSt11char_traitsIwEED1Ev
00000000000f5470 w _ZNSt14basic_iostreamIwSt11char_traitsIwEED0Ev
00000000000f54a0 w _ZThn16_NSt14basic_iostreamIwSt11char_traitsIwEED0Ev
00000000000f54b0 w _ZTv0_n24_NSt14basic_iostreamIwSt11char_traitsIwEED0Ev
00000000000f54c0 w _ZNSdC2EPSt15basic_streambufIcSt11char_traitsIcEE
00000000000f5550 w _ZNSdC1EPSt15basic_streambufIcSt11char_traitsIcEE
00000000000f5640 w _ZNSdD2Ev
00000000000f5690 w _ZNSdC2Ev
00000000000f5720 w _ZNSdC1Ev
00000000000f5810 w _ZNSdC2EOSd
00000000000f58f0 w _ZNSdC1EOSd
00000000000f5a30 w _ZNSdaSEOSd
00000000000f5af0 w _ZNSd4swapERSd
00000000000f5bb0 w _ZNSt14basic_iostreamIwSt11char_traitsIwEEC2EPSt15basic_streambufIwS1_E
00000000000f5c40 w _ZNSt14basic_iostreamIwSt11char_traitsIwEEC1EPSt15basic_streambufIwS1_E
00000000000f5d30 w _ZNSt14basic_iostreamIwSt11char_traitsIwEED2Ev
00000000000f5d80 w _ZNSt14basic_iostreamIwSt11char_traitsIwEEC2Ev
00000000000f5e10 w _ZNSt14basic_iostreamIwSt11char_traitsIwEEC1Ev
00000000000f5f00 w _ZNSt14basic_iostreamIwSt11char_traitsIwEEC2EOS2_
00000000000f5fe0 w _ZNSt14basic_iostreamIwSt11char_traitsIwEEC1EOS2_
00000000000f6120 w _ZNSt14basic_iostreamIwSt11char_traitsIwEEaSEOS2_
00000000000f61e0 w _ZNSt14basic_iostreamIwSt11char_traitsIwEE4swapERS2_
00000000000f62a0 w _ZNSiD1Ev
00000000000f62d0 w _ZTv0_n24_NSiD1Ev
00000000000f62e0 w _ZNSiD0Ev
00000000000f6320 w _ZTv0_n24_NSiD0Ev
00000000000f6330 w _ZNSt13basic_istreamIwSt11char_traitsIwEED1Ev
00000000000f6360 w _ZTv0_n24_NSt13basic_istreamIwSt11char_traitsIwEED1Ev
00000000000f6370 w _ZNSt13basic_istreamIwSt11char_traitsIwEED0Ev
00000000000f63b0 w _ZTv0_n24_NSt13basic_istreamIwSt11char_traitsIwEED0Ev
00000000000f63c0 w _ZNSiC2EPSt15basic_streambufIcSt11char_traitsIcEE
00000000000f63f0 w _ZNSiC1EPSt15basic_streambufIcSt11char_traitsIcEE
00000000000f64a0 w _ZNSiD2Ev
00000000000f64c0 w _ZNSirsEPFRSiS_E
00000000000f64d0 w _ZNSirsEPFRSt9basic_iosIcSt11char_traitsIcEES3_E
00000000000f64f0 w _ZNSirsEPFRSt8ios_baseS0_E
00000000000f6510 w _ZNKSi6gcountEv
00000000000f6520 w _ZNSi7getlineEPcl
00000000000f65a0 w _ZNSiC2Ev
00000000000f65d0 w _ZNSiC1Ev
00000000000f6680 w _ZNSiC2EOSi
00000000000f6720 w _ZNSiC1EOSi
00000000000f6840 w _ZNSiaSEOSi
00000000000f6900 w _ZNSi4swapERSi
00000000000f69c0 w _ZNSi6sentryC2ERSib
00000000000f6b70 w _ZNSirsERs
00000000000f6cf0 w _ZNSirsERi
00000000000f6e70 w _ZNSirsEPSt15basic_streambufIcSt11char_traitsIcEE
00000000000f6fa0 w _ZNSi3getEv
00000000000f70e0 w _ZNSi3getERc
00000000000f7230 w _ZNSi3getEPclc
00000000000f7410 w _ZNSi3getEPcl
00000000000f7490 w _ZNSi3getERSt15basic_streambufIcSt11char_traitsIcEEc
00000000000f76d0 w _ZNSi3getERSt15basic_streambufIcSt11char_traitsIcEE
00000000000f7750 w _ZNSi4peekEv
00000000000f7870 w _ZNSi4readEPcl
00000000000f7990 w _ZNSi8readsomeEPcl
00000000000f7af0 w _ZNSi7putbackEc
00000000000f7c40 w _ZNSi5ungetEv
00000000000f7d80 w _ZNSi4syncEv
00000000000f7e90 w _ZNSi5tellgEv
00000000000f7fa0 w _ZNSi5seekgESt4fposI11__mbstate_tE
00000000000f80d0 w _ZNSi5seekgElSt12_Ios_Seekdir
00000000000f8200 w _ZNKSi6sentrycvbEv
00000000000f8210 w _ZSt2wsIcSt11char_traitsIcEERSt13basic_istreamIT_T0_ES6_
00000000000f8330 w _ZStrsIcSt11char_traitsIcEERSt13basic_istreamIT_T0_ES6_RS3_
00000000000f8450 w _ZStrsISt11char_traitsIcEERSt13basic_istreamIcT_ES5_Rh
00000000000f8460 w _ZStrsISt11char_traitsIcEERSt13basic_istreamIcT_ES5_Ra
00000000000f8470 w _ZStrsISt11char_traitsIcEERSt13basic_istreamIcT_ES5_Ph
00000000000f8480 w _ZStrsISt11char_traitsIcEERSt13basic_istreamIcT_ES5_Pa
00000000000f8490 w _ZStrsIcSt11char_traitsIcEERSt13basic_istreamIT_T0_ES6_St8_SetfillIS3_E
00000000000f8520 w _ZStrsIcSt11char_traitsIcEERSt13basic_istreamIT_T0_ES6_St12_Setiosflags
00000000000f8540 w _ZStrsIcSt11char_traitsIcEERSt13basic_istreamIT_T0_ES6_St14_Resetiosflags
00000000000f8560 w _ZStrsIcSt11char_traitsIcEERSt13basic_istreamIT_T0_ES6_St8_Setbase
00000000000f85b0 w _ZStrsIcSt11char_traitsIcEERSt13basic_istreamIT_T0_ES6_St13_Setprecision
00000000000f85d0 w _ZStrsIcSt11char_traitsIcEERSt13basic_istreamIT_T0_ES6_St5_Setw
00000000000f85f0 w _ZNSi10_M_extractItEERSiRT_
00000000000f8720 w _ZNSirsERt
00000000000f8730 w _ZNSi10_M_extractIjEERSiRT_
00000000000f8860 w _ZNSirsERj
00000000000f8870 w _ZNSi10_M_extractIlEERSiRT_
00000000000f89a0 w _ZNSirsERl
00000000000f89b0 w _ZNSi10_M_extractImEERSiRT_
00000000000f8ae0 w _ZNSirsERm
00000000000f8af0 w _ZNSi10_M_extractIbEERSiRT_
00000000000f8c20 w _ZNSirsERb
00000000000f8c30 w _ZNSi10_M_extractIxEERSiRT_
00000000000f8d60 w _ZNSirsERx
00000000000f8d70 w _ZNSi10_M_extractIyEERSiRT_
00000000000f8ea0 w _ZNSirsERy
00000000000f8eb0 w _ZNSi10_M_extractIfEERSiRT_
00000000000f8fe0 w _ZNSirsERf
00000000000f8ff0 w _ZNSi10_M_extractIdEERSiRT_
00000000000f9120 w _ZNSirsERd
00000000000f9130 w _ZNSi10_M_extractIeEERSiRT_
00000000000f9260 w _ZNSirsERe
00000000000f9270 w _ZNSi10_M_extractIPvEERSiRT_
00000000000f93a0 w _ZNSirsERPv
00000000000f93b0 w _ZNSt13basic_istreamIwSt11char_traitsIwEEC2EPSt15basic_streambufIwS1_E
00000000000f93e0 w _ZNSt13basic_istreamIwSt11char_traitsIwEEC1EPSt15basic_streambufIwS1_E
00000000000f9490 w _ZNSt13basic_istreamIwSt11char_traitsIwEED2Ev
00000000000f94b0 w _ZNSt13basic_istreamIwSt11char_traitsIwEErsEPFRS2_S3_E
00000000000f94c0 w _ZNSt13basic_istreamIwSt11char_traitsIwEErsEPFRSt9basic_iosIwS1_ES5_E
00000000000f94e0 w _ZNSt13basic_istreamIwSt11char_traitsIwEErsEPFRSt8ios_baseS4_E
00000000000f9500 w _ZNKSt13basic_istreamIwSt11char_traitsIwEE6gcountEv
00000000000f9510 w _ZNSt13basic_istreamIwSt11char_traitsIwEE7getlineEPwl
00000000000f9560 w _ZNSt13basic_istreamIwSt11char_traitsIwEEC2Ev
00000000000f9590 w _ZNSt13basic_istreamIwSt11char_traitsIwEEC1Ev
00000000000f9640 w _ZNSt13basic_istreamIwSt11char_traitsIwEEC2EOS2_
00000000000f96e0 w _ZNSt13basic_istreamIwSt11char_traitsIwEEC1EOS2_
00000000000f9800 w _ZNSt13basic_istreamIwSt11char_traitsIwEEaSEOS2_
00000000000f98c0 w _ZNSt13basic_istreamIwSt11char_traitsIwEE4swapERS2_
00000000000f9980 w _ZNSt13basic_istreamIwSt11char_traitsIwEE6sentryC1ERS2_b
00000000000f9b20 w _ZNSt13basic_istreamIwSt11char_traitsIwEErsERs
00000000000f9ca0 w _ZNSt13basic_istreamIwSt11char_traitsIwEErsERi
00000000000f9e20 w _ZNSt13basic_istreamIwSt11char_traitsIwEErsEPSt15basic_streambufIwS1_E
00000000000f9f50 w _ZNSt13basic_istreamIwSt11char_traitsIwEE3getEv
00000000000fa0a0 w _ZNSt13basic_istreamIwSt11char_traitsIwEE3getERw
00000000000fa1f0 w _ZNSt13basic_istreamIwSt11char_traitsIwEE3getEPwlw
00000000000fa3c0 w _ZNSt13basic_istreamIwSt11char_traitsIwEE3getEPwl
00000000000fa410 w _ZNSt13basic_istreamIwSt11char_traitsIwEE3getERSt15basic_streambufIwS1_Ew
00000000000fa650 w _ZNSt13basic_istreamIwSt11char_traitsIwEE3getERSt15basic_streambufIwS1_E
00000000000fa6a0 w _ZNSt13basic_istreamIwSt11char_traitsIwEE4peekEv
00000000000fa7c0 w _ZNSt13basic_istreamIwSt11char_traitsIwEE4readEPwl
00000000000fa8e0 w _ZNSt13basic_istreamIwSt11char_traitsIwEE8readsomeEPwl
00000000000faa40 w _ZNSt13basic_istreamIwSt11char_traitsIwEE7putbackEw
00000000000fab90 w _ZNSt13basic_istreamIwSt11char_traitsIwEE5ungetEv
00000000000facd0 w _ZNSt13basic_istreamIwSt11char_traitsIwEE4syncEv
00000000000fade0 w _ZNSt13basic_istreamIwSt11char_traitsIwEE5tellgEv
00000000000faef0 w _ZNSt13basic_istreamIwSt11char_traitsIwEE5seekgESt4fposI11__mbstate_tE
00000000000fb020 w _ZNSt13basic_istreamIwSt11char_traitsIwEE5seekgElSt12_Ios_Seekdir
00000000000fb150 w _ZNKSt13basic_istreamIwSt11char_traitsIwEE6sentrycvbEv
00000000000fb160 w _ZSt2wsIwSt11char_traitsIwEERSt13basic_istreamIT_T0_ES6_
00000000000fb280 w _ZStrsIwSt11char_traitsIwEERSt13basic_istreamIT_T0_ES6_RS3_
00000000000fb3a0 w _ZStrsIwSt11char_traitsIwEERSt13basic_istreamIT_T0_ES6_PS3_
00000000000fb640 w _ZStrsIwSt11char_traitsIwEERSt13basic_istreamIT_T0_ES6_St8_SetfillIS3_E
00000000000fb6b0 w _ZStrsIwSt11char_traitsIwEERSt13basic_istreamIT_T0_ES6_St12_Setiosflags
00000000000fb6d0 w _ZStrsIwSt11char_traitsIwEERSt13basic_istreamIT_T0_ES6_St14_Resetiosflags
00000000000fb6f0 w _ZStrsIwSt11char_traitsIwEERSt13basic_istreamIT_T0_ES6_St8_Setbase
00000000000fb740 w _ZStrsIwSt11char_traitsIwEERSt13basic_istreamIT_T0_ES6_St13_Setprecision
00000000000fb760 w _ZStrsIwSt11char_traitsIwEERSt13basic_istreamIT_T0_ES6_St5_Setw
00000000000fb780 w _ZNSt13basic_istreamIwSt11char_traitsIwEE10_M_extractItEERS2_RT_
00000000000fb8b0 w _ZNSt13basic_istreamIwSt11char_traitsIwEErsERt
00000000000fb8c0 w _ZNSt13basic_istreamIwSt11char_traitsIwEE10_M_extractIjEERS2_RT_
00000000000fb9f0 w _ZNSt13basic_istreamIwSt11char_traitsIwEErsERj
00000000000fba00 w _ZNSt13basic_istreamIwSt11char_traitsIwEE10_M_extractIlEERS2_RT_
00000000000fbb30 w _ZNSt13basic_istreamIwSt11char_traitsIwEErsERl
00000000000fbb40 w _ZNSt13basic_istreamIwSt11char_traitsIwEE10_M_extractImEERS2_RT_
00000000000fbc70 w _ZNSt13basic_istreamIwSt11char_traitsIwEErsERm
00000000000fbc80 w _ZNSt13basic_istreamIwSt11char_traitsIwEE10_M_extractIbEERS2_RT_
00000000000fbdb0 w _ZNSt13basic_istreamIwSt11char_traitsIwEErsERb
00000000000fbdc0 w _ZNSt13basic_istreamIwSt11char_traitsIwEE10_M_extractIxEERS2_RT_
00000000000fbef0 w _ZNSt13basic_istreamIwSt11char_traitsIwEErsERx
00000000000fbf00 w _ZNSt13basic_istreamIwSt11char_traitsIwEE10_M_extractIyEERS2_RT_
00000000000fc030 w _ZNSt13basic_istreamIwSt11char_traitsIwEErsERy
00000000000fc040 w _ZNSt13basic_istreamIwSt11char_traitsIwEE10_M_extractIfEERS2_RT_
00000000000fc170 w _ZNSt13basic_istreamIwSt11char_traitsIwEErsERf
00000000000fc180 w _ZNSt13basic_istreamIwSt11char_traitsIwEE10_M_extractIdEERS2_RT_
00000000000fc2b0 w _ZNSt13basic_istreamIwSt11char_traitsIwEErsERd
00000000000fc2c0 w _ZNSt13basic_istreamIwSt11char_traitsIwEE10_M_extractIeEERS2_RT_
00000000000fc3f0 w _ZNSt13basic_istreamIwSt11char_traitsIwEErsERe
00000000000fc400 w _ZNSt13basic_istreamIwSt11char_traitsIwEE10_M_extractIPvEERS2_RT_
00000000000fc530 w _ZNSt13basic_istreamIwSt11char_traitsIwEErsERPv
00000000000fc540 w _ZNKSt10moneypunctIcLb0EE16do_decimal_pointEv
00000000000fc550 w _ZNKSt10moneypunctIcLb0EE16do_thousands_sepEv
00000000000fc560 w _ZNKSt10moneypunctIcLb0EE14do_frac_digitsEv
00000000000fc570 w _ZNKSt10moneypunctIcLb0EE13do_pos_formatEv
00000000000fc5b0 w _ZNKSt10moneypunctIcLb0EE13do_neg_formatEv
00000000000fc5f0 w _ZNKSt10moneypunctIcLb1EE16do_decimal_pointEv
00000000000fc600 w _ZNKSt10moneypunctIcLb1EE16do_thousands_sepEv
00000000000fc610 w _ZNKSt10moneypunctIcLb1EE14do_frac_digitsEv
00000000000fc620 w _ZNKSt10moneypunctIcLb1EE13do_pos_formatEv
00000000000fc660 w _ZNKSt10moneypunctIcLb1EE13do_neg_formatEv
00000000000fc6a0 w _ZNSt17moneypunct_bynameIcLb0EED2Ev
00000000000fc6c0 w _ZNSt17moneypunct_bynameIcLb1EED1Ev
00000000000fc6e0 w _ZNKSt8numpunctIcE16do_decimal_pointEv
00000000000fc6f0 w _ZNKSt8numpunctIcE16do_thousands_sepEv
00000000000fc700 w _ZNSt15numpunct_bynameIcED2Ev
00000000000fc720 w _ZNKSt8time_getIcSt19istreambuf_iteratorIcSt11char_traitsIcEEE13do_date_orderEv
00000000000fc730 w _ZNKSt7collateIcE7do_hashEPKcS2_
00000000000fc760 w _ZNSt9money_getIcSt19istreambuf_iteratorIcSt11char_traitsIcEEED2Ev
00000000000fc780 w _ZNSt9money_putIcSt19ostreambuf_iteratorIcSt11char_traitsIcEEED1Ev
00000000000fc7a0 w _ZNSt7num_getIcSt19istreambuf_iteratorIcSt11char_traitsIcEEED1Ev
00000000000fc7c0 w _ZNSt7num_putIcSt19ostreambuf_iteratorIcSt11char_traitsIcEEED2Ev
00000000000fc7e0 w _ZNSt17__timepunct_cacheIcED1Ev
00000000000fc800 w _ZNSt8time_putIcSt19ostreambuf_iteratorIcSt11char_traitsIcEEED1Ev
00000000000fc820 w _ZNSt15time_put_bynameIcSt19ostreambuf_iteratorIcSt11char_traitsIcEEED1Ev
00000000000fc840 w _ZNSt8time_getIcSt19istreambuf_iteratorIcSt11char_traitsIcEEED2Ev
00000000000fc860 w _ZNSt15time_get_bynameIcSt19istreambuf_iteratorIcSt11char_traitsIcEEED2Ev
00000000000fc880 w _ZNSt17moneypunct_bynameIcLb0EED0Ev
00000000000fc8a0 w _ZNSt17moneypunct_bynameIcLb1EED0Ev
00000000000fc8c0 w _ZNSt9money_getIcSt19istreambuf_iteratorIcSt11char_traitsIcEEED0Ev
00000000000fc8e0 w _ZNSt9money_putIcSt19ostreambuf_iteratorIcSt11char_traitsIcEEED0Ev
00000000000fc900 w _ZNSt15numpunct_bynameIcED0Ev
00000000000fc920 w _ZNSt7num_getIcSt19istreambuf_iteratorIcSt11char_traitsIcEEED0Ev
00000000000fc940 w _ZNSt7num_putIcSt19ostreambuf_iteratorIcSt11char_traitsIcEEED0Ev
00000000000fc960 w _ZNSt17__timepunct_cacheIcED0Ev
00000000000fc980 w _ZNSt8time_putIcSt19ostreambuf_iteratorIcSt11char_traitsIcEEED0Ev
00000000000fc9a0 w _ZNSt15time_put_bynameIcSt19ostreambuf_iteratorIcSt11char_traitsIcEEED0Ev
00000000000fc9c0 w _ZNSt8time_getIcSt19istreambuf_iteratorIcSt11char_traitsIcEEED0Ev
00000000000fc9e0 w _ZNSt15time_get_bynameIcSt19istreambuf_iteratorIcSt11char_traitsIcEEED0Ev
00000000000fca00 w _ZNKSt10moneypunctIcLb0EE11do_groupingEv
00000000000fca50 w _ZNKSt10moneypunctIcLb0EE14do_curr_symbolEv
00000000000fcaa0 w _ZNKSt10moneypunctIcLb0EE16do_positive_signEv
00000000000fcaf0 w _ZNKSt10moneypunctIcLb0EE16do_negative_signEv
00000000000fcb40 w _ZNKSt10moneypunctIcLb1EE11do_groupingEv
00000000000fcb90 w _ZNKSt10moneypunctIcLb1EE14do_curr_symbolEv
00000000000fcbe0 w _ZNKSt10moneypunctIcLb1EE16do_positive_signEv
00000000000fcc30 w _ZNKSt10moneypunctIcLb1EE16do_negative_signEv
00000000000fcc80 w _ZNKSt8numpunctIcE11do_groupingEv
00000000000fccd0 w _ZNKSt8numpunctIcE11do_truenameEv
00000000000fcd20 w _ZNKSt8numpunctIcE12do_falsenameEv
00000000000fcd70 w _ZNSt7collateIcED1Ev
00000000000fcda0 w _ZNSt7collateIcED0Ev
00000000000fcdd0 w _ZNSt14collate_bynameIcED1Ev
00000000000fce00 w _ZNSt14collate_bynameIcED0Ev
00000000000fce30 w _ZNSt11__timepunctIcED2Ev
00000000000fce90 w _ZNSt11__timepunctIcED0Ev
00000000000fceb0 w _ZNSt8messagesIcED2Ev
00000000000fcf00 w _ZNSt8messagesIcED0Ev
00000000000fcf20 w _ZNSt15messages_bynameIcED1Ev
00000000000fcf40 w _ZNSt15messages_bynameIcED0Ev
00000000000fcf60 w _ZNSt14codecvt_bynameIcc11__mbstate_tED2Ev
00000000000fcf80 w _ZNSt14codecvt_bynameIcc11__mbstate_tED0Ev
00000000000fcfe0 w _ZNKSt7collateIcE10do_compareEPKcS2_S2_S2_
00000000000fd190 w _ZNKSt7collateIcE12do_transformEPKcS2_
00000000000fd3a0 w _ZNSt18__moneypunct_cacheIcLb0EEC2Em
00000000000fd440 w _ZNSt18__moneypunct_cacheIcLb1EEC2Em
00000000000fd4e0 w _ZNSt10moneypunctIcLb0EEC1Em
00000000000fd530 w _ZNSt10moneypunctIcLb0EEC2EPSt18__moneypunct_cacheIcLb0EEm
00000000000fd580 w _ZNSt10moneypunctIcLb0EEC2EP15__locale_structPKcm
00000000000fd5d0 w _ZNKSt10moneypunctIcLb0EE13decimal_pointEv
00000000000fd600 w _ZNKSt10moneypunctIcLb0EE13thousands_sepEv
00000000000fd630 w _ZNKSt10moneypunctIcLb0EE8groupingEv
00000000000fd6a0 w _ZNKSt10moneypunctIcLb0EE11curr_symbolEv
00000000000fd710 w _ZNKSt10moneypunctIcLb0EE13positive_signEv
00000000000fd780 w _ZNKSt10moneypunctIcLb0EE13negative_signEv
00000000000fd7f0 w _ZNKSt10moneypunctIcLb0EE11frac_digitsEv
00000000000fd820 w _ZNKSt10moneypunctIcLb0EE10pos_formatEv
00000000000fd870 w _ZNKSt10moneypunctIcLb0EE10neg_formatEv
00000000000fd8c0 w _ZNSt10moneypunctIcLb1EEC2Em
00000000000fd910 w _ZNSt10moneypunctIcLb1EEC2EPSt18__moneypunct_cacheIcLb1EEm
00000000000fd960 w _ZNSt10moneypunctIcLb1EEC1EP15__locale_structPKcm
00000000000fd9b0 w _ZNKSt10moneypunctIcLb1EE13decimal_pointEv
00000000000fd9e0 w _ZNKSt10moneypunctIcLb1EE13thousands_sepEv
00000000000fda10 w _ZNKSt10moneypunctIcLb1EE8groupingEv
00000000000fda80 w _ZNKSt10moneypunctIcLb1EE11curr_symbolEv
00000000000fdaf0 w _ZNKSt10moneypunctIcLb1EE13positive_signEv
00000000000fdb60 w _ZNKSt10moneypunctIcLb1EE13negative_signEv
00000000000fdbd0 w _ZNKSt10moneypunctIcLb1EE11frac_digitsEv
00000000000fdc00 w _ZNKSt10moneypunctIcLb1EE10pos_formatEv
00000000000fdc50 w _ZNKSt10moneypunctIcLb1EE10neg_formatEv
00000000000fdca0 w _ZNSt17moneypunct_bynameIcLb0EEC1EPKcm
00000000000fdd90 w _ZNSt17moneypunct_bynameIcLb0EEC1ERKSsm
00000000000fde80 w _ZNSt17moneypunct_bynameIcLb1EEC1EPKcm
00000000000fdf70 w _ZNSt17moneypunct_bynameIcLb1EEC2ERKSsm
00000000000fe060 w _ZNSt9money_getIcSt19istreambuf_iteratorIcSt11char_traitsIcEEEC2Em
00000000000fe080 w _ZNKSt9money_getIcSt19istreambuf_iteratorIcSt11char_traitsIcEEE3getES3_S3_bRSt8ios_baseRSt12_Ios_IostateRe
00000000000fe0a0 w _ZNKSt9money_getIcSt19istreambuf_iteratorIcSt11char_traitsIcEEE3getES3_S3_bRSt8ios_baseRSt12_Ios_IostateRSs
00000000000fe0c0 w _ZNSt9money_putIcSt19ostreambuf_iteratorIcSt11char_traitsIcEEEC1Em
00000000000fe0e0 w _ZNKSt9money_putIcSt19ostreambuf_iteratorIcSt11char_traitsIcEEE3putES3_bRSt8ios_basece
00000000000fe100 w _ZNKSt9money_putIcSt19ostreambuf_iteratorIcSt11char_traitsIcEEE3putES3_bRSt8ios_basecRKSs
00000000000fe120 w _ZNSt16__numpunct_cacheIcEC2Em
00000000000fe180 w _ZNSt8numpunctIcEC1Em
00000000000fe1d0 w _ZNSt8numpunctIcEC1EPSt16__numpunct_cacheIcEm
00000000000fe220 w _ZNSt8numpunctIcEC1EP15__locale_structm
00000000000fe270 w _ZNKSt8numpunctIcE13decimal_pointEv
00000000000fe2a0 w _ZNKSt8numpunctIcE13thousands_sepEv
00000000000fe2d0 w _ZNKSt8numpunctIcE8groupingEv
00000000000fe340 w _ZNKSt8numpunctIcE8truenameEv
00000000000fe3b0 w _ZNKSt8numpunctIcE9falsenameEv
00000000000fe420 w _ZNSt15numpunct_bynameIcEC1EPKcm
00000000000fe510 w _ZNSt15numpunct_bynameIcEC2ERKSsm
00000000000fe600 w _ZNSt7num_getIcSt19istreambuf_iteratorIcSt11char_traitsIcEEEC2Em
00000000000fe620 w _ZNKSt7num_getIcSt19istreambuf_iteratorIcSt11char_traitsIcEEE3getES3_S3_RSt8ios_baseRSt12_Ios_IostateRb
00000000000fe640 w _ZNKSt7num_getIcSt19istreambuf_iteratorIcSt11char_traitsIcEEE3getES3_S3_RSt8ios_baseRSt12_Ios_IostateRf
00000000000fe660 w _ZNKSt7num_getIcSt19istreambuf_iteratorIcSt11char_traitsIcEEE3getES3_S3_RSt8ios_baseRSt12_Ios_IostateRd
00000000000fe680 w _ZNKSt7num_getIcSt19istreambuf_iteratorIcSt11char_traitsIcEEE3getES3_S3_RSt8ios_baseRSt12_Ios_IostateRe
00000000000fe6a0 w _ZNKSt7num_getIcSt19istreambuf_iteratorIcSt11char_traitsIcEEE3getES3_S3_RSt8ios_baseRSt12_Ios_IostateRPv
00000000000fe6c0 w _ZNSt7num_putIcSt19ostreambuf_iteratorIcSt11char_traitsIcEEEC1Em
00000000000fe6e0 w _ZNKSt7num_putIcSt19ostreambuf_iteratorIcSt11char_traitsIcEEE3putES3_RSt8ios_basecb
00000000000fe700 w _ZNKSt7num_putIcSt19ostreambuf_iteratorIcSt11char_traitsIcEEE3putES3_RSt8ios_basecd
00000000000fe720 w _ZNKSt7num_putIcSt19ostreambuf_iteratorIcSt11char_traitsIcEEE3putES3_RSt8ios_basece
00000000000fe740 w _ZNKSt7num_putIcSt19ostreambuf_iteratorIcSt11char_traitsIcEEE3putES3_RSt8ios_basecPKv
00000000000fe760 w _ZNSt11__timepunctIcEC2Em
00000000000fe7c0 w _ZNSt11__timepunctIcEC1EPSt17__timepunct_cacheIcEm
00000000000fe820 w _ZNSt11__timepunctIcEC2EP15__locale_structPKcm
00000000000fe910 w _ZNKSt11__timepunctIcE15_M_date_formatsEPPKc
00000000000fe930 w _ZNKSt11__timepunctIcE15_M_time_formatsEPPKc
00000000000fe950 w _ZNKSt11__timepunctIcE20_M_date_time_formatsEPPKc
00000000000fe970 w _ZNKSt11__timepunctIcE15_M_am_pm_formatEPKc
00000000000fe980 w _ZNKSt11__timepunctIcE8_M_am_pmEPPKc
00000000000fe9a0 w _ZNKSt11__timepunctIcE7_M_daysEPPKc
00000000000fea00 w _ZNKSt11__timepunctIcE19_M_days_abbreviatedEPPKc
00000000000fea70 w _ZNKSt11__timepunctIcE9_M_monthsEPPKc
00000000000feb30 w _ZNKSt11__timepunctIcE21_M_months_abbreviatedEPPKc
00000000000febf0 w _ZNSt17__timepunct_cacheIcEC2Em
00000000000fedf0 w _ZNSt8time_putIcSt19ostreambuf_iteratorIcSt11char_traitsIcEEEC2Em
00000000000fee10 w _ZNKSt8time_putIcSt19ostreambuf_iteratorIcSt11char_traitsIcEEE3putES3_RSt8ios_basecPK2tmcc
00000000000fee40 w _ZNSt15time_put_bynameIcSt19ostreambuf_iteratorIcSt11char_traitsIcEEEC1EPKcm
00000000000fee60 w _ZNSt15time_put_bynameIcSt19ostreambuf_iteratorIcSt11char_traitsIcEEEC1ERKSsm
00000000000fee80 w _ZNSt8time_getIcSt19istreambuf_iteratorIcSt11char_traitsIcEEEC2Em
00000000000feea0 w _ZNKSt8time_getIcSt19istreambuf_iteratorIcSt11char_traitsIcEEE10date_orderEv
00000000000feeb0 w _ZNKSt8time_getIcSt19istreambuf_iteratorIcSt11char_traitsIcEEE8get_timeES3_S3_RSt8ios_baseRSt12_Ios_IostateP2tm
00000000000feed0 w _ZNKSt8time_getIcSt19istreambuf_iteratorIcSt11char_traitsIcEEE8get_dateES3_S3_RSt8ios_baseRSt12_Ios_IostateP2tm
00000000000feef0 w _ZNKSt8time_getIcSt19istreambuf_iteratorIcSt11char_traitsIcEEE11get_weekdayES3_S3_RSt8ios_baseRSt12_Ios_IostateP2tm
00000000000fef10 w _ZNKSt8time_getIcSt19istreambuf_iteratorIcSt11char_traitsIcEEE13get_monthnameES3_S3_RSt8ios_baseRSt12_Ios_IostateP2tm
00000000000fef30 w _ZNKSt8time_getIcSt19istreambuf_iteratorIcSt11char_traitsIcEEE8get_yearES3_S3_RSt8ios_baseRSt12_Ios_IostateP2tm
00000000000fef50 w _ZNSt15time_get_bynameIcSt19istreambuf_iteratorIcSt11char_traitsIcEEEC1EPKcm
00000000000fef70 w _ZNSt15time_get_bynameIcSt19istreambuf_iteratorIcSt11char_traitsIcEEEC1ERKSsm
00000000000fef90 w _ZNSt8messagesIcEC1Em
00000000000fefe0 w _ZNSt8messagesIcEC2EP15__locale_structPKcm
00000000000ff090 w _ZNKSt8messagesIcE4openERKSsRKSt6locale
00000000000ff0a0 w _ZNKSt8messagesIcE4openERKSsRKSt6localePKc
00000000000ff0d0 w _ZNKSt8messagesIcE3getEiiiRKSs
00000000000ff110 w _ZNKSt8messagesIcE5closeEi
00000000000ff120 w _ZNKSt8messagesIcE18_M_convert_to_charERKSs
00000000000ff130 w _ZNKSt8messagesIcE20_M_convert_from_charEPc
00000000000ff150 w _ZNSt15messages_bynameIcEC2EPKcm
00000000000ff250 w _ZNSt15messages_bynameIcEC2ERKSsm
00000000000ff260 T _ZNSt12ctype_bynameIcEC2ERKSsm
00000000000ff270 w _ZNSt14codecvt_bynameIcc11__mbstate_tEC1EPKcm
00000000000ff300 w _ZNSt14codecvt_bynameIcc11__mbstate_tEC2ERKSsm
00000000000ff390 w _ZNSt7collateIcEC2Em
00000000000ff3e0 w _ZNSt7collateIcEC1EP15__locale_structm
00000000000ff420 w _ZNKSt7collateIcE7compareEPKcS2_S2_S2_
00000000000ff430 w _ZNKSt7collateIcE9transformEPKcS2_
00000000000ff470 w _ZNKSt7collateIcE4hashEPKcS2_
00000000000ff480 w _ZNSt14collate_bynameIcEC1EPKcm
00000000000ff550 w _ZSt9use_facetISt5ctypeIcEERKT_RKSt6locale
00000000000ff5a0 w _ZNKSt8time_putIcSt19ostreambuf_iteratorIcSt11char_traitsIcEEE3putES3_RSt8ios_basecPK2tmPKcSB_
00000000000ff890 w _ZNKSt8time_getIcSt19istreambuf_iteratorIcSt11char_traitsIcEEE14_M_extract_numES3_S3_RiiimRSt8ios_baseRSt12_Ios_Iostate
00000000000ffca0 w _ZSt9use_facetISt7codecvtIcc11__mbstate_tEERKT_RKSt6locale
00000000000ffcf0 w _ZSt9use_facetISt7collateIcEERKT_RKSt6locale
00000000000ffd40 w _ZSt9use_facetISt8numpunctIcEERKT_RKSt6locale
00000000000ffd90 w _ZNSt16__numpunct_cacheIcE8_M_cacheERKSt6locale
00000000001001c0 w _ZSt9use_facetISt7num_putIcSt19ostreambuf_iteratorIcSt11char_traitsIcEEEERKT_RKSt6locale
0000000000100210 w _ZSt9use_facetISt7num_getIcSt19istreambuf_iteratorIcSt11char_traitsIcEEEERKT_RKSt6locale
0000000000100260 w _ZSt9use_facetISt10moneypunctIcLb1EEERKT_RKSt6locale
00000000001002b0 w _ZNSt18__moneypunct_cacheIcLb1EE8_M_cacheERKSt6locale
0000000000100850 w _ZSt9use_facetISt10moneypunctIcLb0EEERKT_RKSt6locale
00000000001008a0 w _ZNSt18__moneypunct_cacheIcLb0EE8_M_cacheERKSt6locale
0000000000100e40 w _ZSt9use_facetISt9money_putIcSt19ostreambuf_iteratorIcSt11char_traitsIcEEEERKT_RKSt6locale
0000000000100e90 w _ZSt9use_facetISt9money_getIcSt19istreambuf_iteratorIcSt11char_traitsIcEEEERKT_RKSt6locale
0000000000100ee0 w _ZSt9use_facetISt11__timepunctIcEERKT_RKSt6locale
0000000000100f30 w _ZNKSt8time_putIcSt19ostreambuf_iteratorIcSt11char_traitsIcEEE6do_putES3_RSt8ios_basecPK2tmcc
00000000001010d0 w _ZSt9use_facetISt8time_putIcSt19ostreambuf_iteratorIcSt11char_traitsIcEEEERKT_RKSt6locale
0000000000101120 w _ZSt9use_facetISt8time_getIcSt19istreambuf_iteratorIcSt11char_traitsIcEEEERKT_RKSt6locale
0000000000101170 w _ZSt9use_facetISt8messagesIcEERKT_RKSt6locale
00000000001011c0 w _ZSt9has_facetISt5ctypeIcEEbRKSt6locale
0000000000101210 w _ZSt9has_facetISt7codecvtIcc11__mbstate_tEEbRKSt6locale
0000000000101260 w _ZSt9has_facetISt7collateIcEEbRKSt6locale
00000000001012b0 w _ZSt9has_facetISt8numpunctIcEEbRKSt6locale
0000000000101300 w _ZSt9has_facetISt7num_putIcSt19ostreambuf_iteratorIcSt11char_traitsIcEEEEbRKSt6locale
0000000000101350 w _ZSt9has_facetISt7num_getIcSt19istreambuf_iteratorIcSt11char_traitsIcEEEEbRKSt6locale
00000000001013a0 w _ZSt9has_facetISt10moneypunctIcLb0EEEbRKSt6locale
00000000001013f0 w _ZSt9has_facetISt9money_putIcSt19ostreambuf_iteratorIcSt11char_traitsIcEEEEbRKSt6locale
0000000000101440 w _ZSt9has_facetISt9money_getIcSt19istreambuf_iteratorIcSt11char_traitsIcEEEEbRKSt6locale
0000000000101490 w _ZSt9has_facetISt11__timepunctIcEEbRKSt6locale
00000000001014e0 w _ZSt9has_facetISt8time_putIcSt19ostreambuf_iteratorIcSt11char_traitsIcEEEEbRKSt6locale
0000000000101530 w _ZSt9has_facetISt8time_getIcSt19istreambuf_iteratorIcSt11char_traitsIcEEEEbRKSt6locale
0000000000101580 w _ZSt9has_facetISt8messagesIcEEbRKSt6locale
0000000000101730 w _ZNKSt7num_putIcSt19ostreambuf_iteratorIcSt11char_traitsIcEEE14_M_group_floatEPKcmcS6_PcS7_Ri
00000000001017f0 w _ZNKSt7num_putIcSt19ostreambuf_iteratorIcSt11char_traitsIcEEE12_M_group_intEPKcmcRSt8ios_basePcS9_Ri
0000000000101ab0 w _ZNKSt7num_putIcSt19ostreambuf_iteratorIcSt11char_traitsIcEEE6_M_padEclRSt8ios_basePcPKcRi
0000000000101d80 w _ZNKSt9money_putIcSt19ostreambuf_iteratorIcSt11char_traitsIcEEE9_M_insertILb1EEES3_S3_RSt8ios_basecRKSs
0000000000102450 w _ZNKSt9money_putIcSt19ostreambuf_iteratorIcSt11char_traitsIcEEE9_M_insertILb0EEES3_S3_RSt8ios_basecRKSs
00000000001029e0 w _ZNKSt9money_putIcSt19ostreambuf_iteratorIcSt11char_traitsIcEEE6do_putES3_bRSt8ios_basece
0000000000102bf0 w _ZNKSt9money_putIcSt19ostreambuf_iteratorIcSt11char_traitsIcEEE6do_putES3_bRSt8ios_basecRKSs
0000000000102c30 w _ZNKSt7num_putIcSt19ostreambuf_iteratorIcSt11char_traitsIcEEE13_M_insert_intIlEES3_S3_RSt8ios_basecT_
0000000000102ed0 w _ZNKSt7num_putIcSt19ostreambuf_iteratorIcSt11char_traitsIcEEE6do_putES3_RSt8ios_basecl
0000000000102ef0 w _ZNKSt7num_putIcSt19ostreambuf_iteratorIcSt11char_traitsIcEEE3putES3_RSt8ios_basecl
0000000000102f20 w _ZNKSt7num_putIcSt19ostreambuf_iteratorIcSt11char_traitsIcEEE6do_putES3_RSt8ios_basecb
0000000000103120 w _ZNKSt7num_putIcSt19ostreambuf_iteratorIcSt11char_traitsIcEEE13_M_insert_intImEES3_S3_RSt8ios_basecT_
0000000000103360 w _ZNKSt7num_putIcSt19ostreambuf_iteratorIcSt11char_traitsIcEEE6do_putES3_RSt8ios_basecm
0000000000103380 w _ZNKSt7num_putIcSt19ostreambuf_iteratorIcSt11char_traitsIcEEE6do_putES3_RSt8ios_basecPKv
00000000001033d0 w _ZNKSt7num_putIcSt19ostreambuf_iteratorIcSt11char_traitsIcEEE3putES3_RSt8ios_basecm
0000000000103400 w _ZNKSt7num_putIcSt19ostreambuf_iteratorIcSt11char_traitsIcEEE13_M_insert_intIxEES3_S3_RSt8ios_basecT_
00000000001036a0 w _ZNKSt7num_putIcSt19ostreambuf_iteratorIcSt11char_traitsIcEEE6do_putES3_RSt8ios_basecx
00000000001036c0 w _ZNKSt7num_putIcSt19ostreambuf_iteratorIcSt11char_traitsIcEEE3putES3_RSt8ios_basecx
00000000001036f0 w _ZNKSt7num_putIcSt19ostreambuf_iteratorIcSt11char_traitsIcEEE13_M_insert_intIyEES3_S3_RSt8ios_basecT_
0000000000103930 w _ZNKSt7num_putIcSt19ostreambuf_iteratorIcSt11char_traitsIcEEE6do_putES3_RSt8ios_basecy
0000000000103950 w _ZNKSt7num_putIcSt19ostreambuf_iteratorIcSt11char_traitsIcEEE3putES3_RSt8ios_basecy
0000000000103980 w _ZNKSt7num_putIcSt19ostreambuf_iteratorIcSt11char_traitsIcEEE15_M_insert_floatIdEES3_S3_RSt8ios_baseccT_
0000000000103d60 w _ZNKSt7num_putIcSt19ostreambuf_iteratorIcSt11char_traitsIcEEE6do_putES3_RSt8ios_basecd
0000000000103d80 w _ZNKSt7num_putIcSt19ostreambuf_iteratorIcSt11char_traitsIcEEE15_M_insert_floatIeEES3_S3_RSt8ios_baseccT_
0000000000104160 w _ZNKSt7num_putIcSt19ostreambuf_iteratorIcSt11char_traitsIcEEE6do_putES3_RSt8ios_basece
0000000000104180 w _ZNKSt8time_getIcSt19istreambuf_iteratorIcSt11char_traitsIcEEE24_M_extract_wday_or_monthES3_S3_RiPPKcmRSt8ios_baseRSt12_Ios_Iostate
00000000001045a0 w _ZNKSt8time_getIcSt19istreambuf_iteratorIcSt11char_traitsIcEEE14do_get_weekdayES3_S3_RSt8ios_baseRSt12_Ios_IostateP2tm
00000000001047a0 w _ZNKSt7num_getIcSt19istreambuf_iteratorIcSt11char_traitsIcEEE16_M_extract_floatES3_S3_RSt8ios_baseRSt12_Ios_IostateRSs
0000000000105180 w _ZNKSt7num_getIcSt19istreambuf_iteratorIcSt11char_traitsIcEEE14_M_extract_intIlEES3_S3_S3_RSt8ios_baseRSt12_Ios_IostateRT_
0000000000105ae0 w _ZNKSt7num_getIcSt19istreambuf_iteratorIcSt11char_traitsIcEEE6do_getES3_S3_RSt8ios_baseRSt12_Ios_IostateRb
0000000000105f50 w _ZNKSt7num_getIcSt19istreambuf_iteratorIcSt11char_traitsIcEEE6do_getES3_S3_RSt8ios_baseRSt12_Ios_IostateRl
0000000000105f70 w _ZNKSt7num_getIcSt19istreambuf_iteratorIcSt11char_traitsIcEEE3getES3_S3_RSt8ios_baseRSt12_Ios_IostateRl
0000000000105fb0 w _ZNKSt7num_getIcSt19istreambuf_iteratorIcSt11char_traitsIcEEE14_M_extract_intItEES3_S3_S3_RSt8ios_baseRSt12_Ios_IostateRT_
00000000001068d0 w _ZNKSt7num_getIcSt19istreambuf_iteratorIcSt11char_traitsIcEEE6do_getES3_S3_RSt8ios_baseRSt12_Ios_IostateRt
00000000001068f0 w _ZNKSt7num_getIcSt19istreambuf_iteratorIcSt11char_traitsIcEEE3getES3_S3_RSt8ios_baseRSt12_Ios_IostateRt
0000000000106930 w _ZNKSt7num_getIcSt19istreambuf_iteratorIcSt11char_traitsIcEEE14_M_extract_intIjEES3_S3_S3_RSt8ios_baseRSt12_Ios_IostateRT_
0000000000107240 w _ZNKSt7num_getIcSt19istreambuf_iteratorIcSt11char_traitsIcEEE6do_getES3_S3_RSt8ios_baseRSt12_Ios_IostateRj
0000000000107260 w _ZNKSt7num_getIcSt19istreambuf_iteratorIcSt11char_traitsIcEEE3getES3_S3_RSt8ios_baseRSt12_Ios_IostateRj
00000000001072a0 w _ZNKSt7num_getIcSt19istreambuf_iteratorIcSt11char_traitsIcEEE14_M_extract_intImEES3_S3_S3_RSt8ios_baseRSt12_Ios_IostateRT_
0000000000107bd0 w _ZNKSt7num_getIcSt19istreambuf_iteratorIcSt11char_traitsIcEEE6do_getES3_S3_RSt8ios_baseRSt12_Ios_IostateRm
0000000000107bf0 w _ZNKSt7num_getIcSt19istreambuf_iteratorIcSt11char_traitsIcEEE6do_getES3_S3_RSt8ios_baseRSt12_Ios_IostateRPv
0000000000107c80 w _ZNKSt7num_getIcSt19istreambuf_iteratorIcSt11char_traitsIcEEE3getES3_S3_RSt8ios_baseRSt12_Ios_IostateRm
0000000000107cc0 w _ZNKSt7num_getIcSt19istreambuf_iteratorIcSt11char_traitsIcEEE14_M_extract_intIxEES3_S3_S3_RSt8ios_baseRSt12_Ios_IostateRT_
0000000000108620 w _ZNKSt7num_getIcSt19istreambuf_iteratorIcSt11char_traitsIcEEE6do_getES3_S3_RSt8ios_baseRSt12_Ios_IostateRx
0000000000108640 w _ZNKSt7num_getIcSt19istreambuf_iteratorIcSt11char_traitsIcEEE3getES3_S3_RSt8ios_baseRSt12_Ios_IostateRx
0000000000108680 w _ZNKSt7num_getIcSt19istreambuf_iteratorIcSt11char_traitsIcEEE14_M_extract_intIyEES3_S3_S3_RSt8ios_baseRSt12_Ios_IostateRT_
0000000000108fb0 w _ZNKSt7num_getIcSt19istreambuf_iteratorIcSt11char_traitsIcEEE6do_getES3_S3_RSt8ios_baseRSt12_Ios_IostateRy
0000000000108fd0 w _ZNKSt7num_getIcSt19istreambuf_iteratorIcSt11char_traitsIcEEE3getES3_S3_RSt8ios_baseRSt12_Ios_IostateRy
0000000000109010 w _ZNKSt8time_getIcSt19istreambuf_iteratorIcSt11char_traitsIcEEE15_M_extract_nameES3_S3_RiPPKcmRSt8ios_baseRSt12_Ios_Iostate
0000000000109350 w _ZNKSt8time_getIcSt19istreambuf_iteratorIcSt11char_traitsIcEEE21_M_extract_via_formatES3_S3_RSt8ios_baseRSt12_Ios_IostateP2tmPKc
000000000010a420 w _ZNKSt8time_getIcSt19istreambuf_iteratorIcSt11char_traitsIcEEE11do_get_timeES3_S3_RSt8ios_baseRSt12_Ios_IostateP2tm
000000000010a560 w _ZNKSt8time_getIcSt19istreambuf_iteratorIcSt11char_traitsIcEEE11do_get_dateES3_S3_RSt8ios_baseRSt12_Ios_IostateP2tm
000000000010a6a0 w _ZNKSt9money_getIcSt19istreambuf_iteratorIcSt11char_traitsIcEEE10_M_extractILb0EEES3_S3_S3_RSt8ios_baseRSt12_Ios_IostateRSs
000000000010b6a0 w _ZNKSt9money_getIcSt19istreambuf_iteratorIcSt11char_traitsIcEEE10_M_extractILb1EEES3_S3_S3_RSt8ios_baseRSt12_Ios_IostateRSs
000000000010c6a0 w _ZNKSt9money_getIcSt19istreambuf_iteratorIcSt11char_traitsIcEEE6do_getES3_S3_bRSt8ios_baseRSt12_Ios_IostateRe
000000000010c7c0 w _ZNKSt9money_getIcSt19istreambuf_iteratorIcSt11char_traitsIcEEE6do_getES3_S3_bRSt8ios_baseRSt12_Ios_IostateRSs
000000000010c970 w _ZNKSt8time_getIcSt19istreambuf_iteratorIcSt11char_traitsIcEEE11do_get_yearES3_S3_RSt8ios_baseRSt12_Ios_IostateP2tm
000000000010ca90 w _ZNKSt8time_getIcSt19istreambuf_iteratorIcSt11char_traitsIcEEE3getES3_S3_RSt8ios_baseRSt12_Ios_IostateP2tmPKcSC_
000000000010d2e0 w _ZNKSt8time_getIcSt19istreambuf_iteratorIcSt11char_traitsIcEEE6do_getES3_S3_RSt8ios_baseRSt12_Ios_IostateP2tmcc
000000000010d470 w _ZNKSt8time_getIcSt19istreambuf_iteratorIcSt11char_traitsIcEEE16do_get_monthnameES3_S3_RSt8ios_baseRSt12_Ios_IostateP2tm
000000000010d750 w _ZNKSt7num_getIcSt19istreambuf_iteratorIcSt11char_traitsIcEEE6do_getES3_S3_RSt8ios_baseRSt12_Ios_IostateRf
000000000010d8b0 w _ZNKSt7num_getIcSt19istreambuf_iteratorIcSt11char_traitsIcEEE6do_getES3_S3_RSt8ios_baseRSt12_Ios_IostateRd
000000000010da10 w _ZNKSt7num_getIcSt19istreambuf_iteratorIcSt11char_traitsIcEEE6do_getES3_S3_RSt8ios_baseRSt12_Ios_IostateRe
000000000010db70 w _ZNSoD1Ev
000000000010dba0 w _ZTv0_n24_NSoD1Ev
000000000010dbb0 w _ZNSoD0Ev
000000000010dbf0 w _ZTv0_n24_NSoD0Ev
000000000010dc00 w _ZNSt13basic_ostreamIwSt11char_traitsIwEED1Ev
000000000010dc30 w _ZTv0_n24_NSt13basic_ostreamIwSt11char_traitsIwEED1Ev
000000000010dc40 w _ZNSt13basic_ostreamIwSt11char_traitsIwEED0Ev
000000000010dc80 w _ZTv0_n24_NSt13basic_ostreamIwSt11char_traitsIwEED0Ev
000000000010dc90 w _ZNSoC2EPSt15basic_streambufIcSt11char_traitsIcEE
000000000010dcb0 w _ZNSoC1EPSt15basic_streambufIcSt11char_traitsIcEE
000000000010dd60 w _ZNSoD2Ev
000000000010dd80 w _ZNSolsEPFRSoS_E
000000000010dd90 w _ZNSolsEPFRSt9basic_iosIcSt11char_traitsIcEES3_E
000000000010ddb0 w _ZNSolsEPFRSt8ios_baseS0_E
000000000010ddd0 w _ZNSo8_M_writeEPKcl
000000000010de20 w _ZNSo5flushEv
000000000010ded0 w _ZNSo5tellpEv
000000000010dfd0 w _ZNSo5seekpESt4fposI11__mbstate_tE
000000000010e0c0 w _ZNSo5seekpElSt12_Ios_Seekdir
000000000010e1b0 w _ZNSoC2Ev
000000000010e1d0 w _ZNSoC1Ev
000000000010e270 w _ZNSoC2ERSd
000000000010e290 w _ZNSoC1ERSd
000000000010e300 w _ZNSoC2EOSo
000000000010e380 w _ZNSoC1EOSo
000000000010e480 w _ZNSoaSEOSo
000000000010e520 w _ZNSo4swapERSo
000000000010e5c0 w _ZNSo6sentryC2ERSo
000000000010e630 w _ZNSo6sentryD2Ev
000000000010e6a0 w _ZNSolsEPSt15basic_streambufIcSt11char_traitsIcEE
000000000010e830 w _ZNSo3putEc
000000000010e9b0 w _ZNSo5writeEPKcl
000000000010eb20 w _ZNKSo6sentrycvbEv
000000000010eb30 w _ZSt4endlIcSt11char_traitsIcEERSt13basic_ostreamIT_T0_ES6_
000000000010eba0 w _ZSt4endsIcSt11char_traitsIcEERSt13basic_ostreamIT_T0_ES6_
000000000010ebb0 w _ZSt5flushIcSt11char_traitsIcEERSt13basic_ostreamIT_T0_ES6_
000000000010ebc0 w _ZStlsIcSt11char_traitsIcEERSt13basic_ostreamIT_T0_ES6_St8_SetfillIS3_E
000000000010ec50 w _ZStlsIcSt11char_traitsIcEERSt13basic_ostreamIT_T0_ES6_St12_Setiosflags
000000000010ec70 w _ZStlsIcSt11char_traitsIcEERSt13basic_ostreamIT_T0_ES6_St14_Resetiosflags
000000000010ec90 w _ZStlsIcSt11char_traitsIcEERSt13basic_ostreamIT_T0_ES6_St8_Setbase
000000000010ece0 w _ZStlsIcSt11char_traitsIcEERSt13basic_ostreamIT_T0_ES6_St13_Setprecision
000000000010ed00 w _ZStlsIcSt11char_traitsIcEERSt13basic_ostreamIT_T0_ES6_St5_Setw
000000000010ed20 w _ZSt16__ostream_insertIcSt11char_traitsIcEERSt13basic_ostreamIT_T0_ES6_PKS3_l
000000000010f150 w _ZStlsISt11char_traitsIcEERSt13basic_ostreamIcT_ES5_c
000000000010f170 w _ZStlsISt11char_traitsIcEERSt13basic_ostreamIcT_ES5_h
000000000010f1c0 w _ZStlsISt11char_traitsIcEERSt13basic_ostreamIcT_ES5_a
000000000010f210 w _ZStlsISt11char_traitsIcEERSt13basic_ostreamIcT_ES5_PKc
000000000010f270 w _ZStlsISt11char_traitsIcEERSt13basic_ostreamIcT_ES5_PKh
000000000010f2d0 w _ZStlsISt11char_traitsIcEERSt13basic_ostreamIcT_ES5_PKa
000000000010f330 w _ZNSo9_M_insertIlEERSoT_
000000000010f560 w _ZNSolsEl
000000000010f570 w _ZNSolsEs
000000000010f5a0 w _ZNSolsEi
000000000010f5d0 w _ZNSo9_M_insertImEERSoT_
000000000010f800 w _ZNSolsEm
000000000010f810 w _ZNSolsEt
000000000010f820 w _ZNSolsEj
000000000010f830 w _ZNSo9_M_insertIbEERSoT_
000000000010fa60 w _ZNSolsEb
000000000010fa70 w _ZNSo9_M_insertIxEERSoT_
000000000010fca0 w _ZNSolsEx
000000000010fcb0 w _ZNSo9_M_insertIyEERSoT_
000000000010fee0 w _ZNSolsEy
000000000010fef0 w _ZNSo9_M_insertIdEERSoT_
0000000000110120 w _ZNSolsEd
0000000000110130 w _ZNSolsEf
0000000000110140 w _ZNSo9_M_insertIeEERSoT_
0000000000110370 w _ZNSolsEe
0000000000110380 w _ZNSo9_M_insertIPKvEERSoT_
00000000001105b0 w _ZNSolsEPKv
00000000001105c0 w _ZNSt13basic_ostreamIwSt11char_traitsIwEEC2EPSt15basic_streambufIwS1_E
00000000001105e0 w _ZNSt13basic_ostreamIwSt11char_traitsIwEEC1EPSt15basic_streambufIwS1_E
0000000000110690 w _ZNSt13basic_ostreamIwSt11char_traitsIwEED2Ev
00000000001106b0 w _ZNSt13basic_ostreamIwSt11char_traitsIwEElsEPFRS2_S3_E
00000000001106c0 w _ZNSt13basic_ostreamIwSt11char_traitsIwEElsEPFRSt9basic_iosIwS1_ES5_E
00000000001106e0 w _ZNSt13basic_ostreamIwSt11char_traitsIwEElsEPFRSt8ios_baseS4_E
0000000000110700 w _ZNSt13basic_ostreamIwSt11char_traitsIwEE8_M_writeEPKwl
0000000000110750 w _ZNSt13basic_ostreamIwSt11char_traitsIwEE5flushEv
0000000000110800 w _ZNSt13basic_ostreamIwSt11char_traitsIwEE5tellpEv
0000000000110900 w _ZNSt13basic_ostreamIwSt11char_traitsIwEE5seekpESt4fposI11__mbstate_tE
00000000001109f0 w _ZNSt13basic_ostreamIwSt11char_traitsIwEE5seekpElSt12_Ios_Seekdir
0000000000110ae0 w _ZNSt13basic_ostreamIwSt11char_traitsIwEEC2Ev
0000000000110b00 w _ZNSt13basic_ostreamIwSt11char_traitsIwEEC1Ev
0000000000110bb0 w _ZNSt13basic_ostreamIwSt11char_traitsIwEEC2ERSt14basic_iostreamIwS1_E
0000000000110bd0 w _ZNSt13basic_ostreamIwSt11char_traitsIwEEC1ERSt14basic_iostreamIwS1_E
0000000000110c40 w _ZNSt13basic_ostreamIwSt11char_traitsIwEEC2EOS2_
0000000000110cc0 w _ZNSt13basic_ostreamIwSt11char_traitsIwEEC1EOS2_
0000000000110dc0 w _ZNSt13basic_ostreamIwSt11char_traitsIwEEaSEOS2_
0000000000110e60 w _ZNSt13basic_ostreamIwSt11char_traitsIwEE4swapERS2_
0000000000110f00 w _ZNSt13basic_ostreamIwSt11char_traitsIwEE6sentryC1ERS2_
0000000000110f70 w _ZNSt13basic_ostreamIwSt11char_traitsIwEE6sentryD2Ev
0000000000110fe0 w _ZNSt13basic_ostreamIwSt11char_traitsIwEElsEPSt15basic_streambufIwS1_E
0000000000111170 w _ZNSt13basic_ostreamIwSt11char_traitsIwEE3putEw
00000000001112f0 w _ZNSt13basic_ostreamIwSt11char_traitsIwEE5writeEPKwl
0000000000111460 w _ZNKSt13basic_ostreamIwSt11char_traitsIwEE6sentrycvbEv
0000000000111470 w _ZSt4endlIwSt11char_traitsIwEERSt13basic_ostreamIT_T0_ES6_
00000000001114b0 w _ZSt4endsIwSt11char_traitsIwEERSt13basic_ostreamIT_T0_ES6_
00000000001114c0 w _ZSt5flushIwSt11char_traitsIwEERSt13basic_ostreamIT_T0_ES6_
00000000001114d0 w _ZStlsIwSt11char_traitsIwEERSt13basic_ostreamIT_T0_ES6_St8_SetfillIS3_E
0000000000111540 w _ZStlsIwSt11char_traitsIwEERSt13basic_ostreamIT_T0_ES6_St12_Setiosflags
0000000000111560 w _ZStlsIwSt11char_traitsIwEERSt13basic_ostreamIT_T0_ES6_St14_Resetiosflags
0000000000111580 w _ZStlsIwSt11char_traitsIwEERSt13basic_ostreamIT_T0_ES6_St8_Setbase
00000000001115d0 w _ZStlsIwSt11char_traitsIwEERSt13basic_ostreamIT_T0_ES6_St13_Setprecision
00000000001115f0 w _ZStlsIwSt11char_traitsIwEERSt13basic_ostreamIT_T0_ES6_St5_Setw
0000000000111610 w _ZSt16__ostream_insertIwSt11char_traitsIwEERSt13basic_ostreamIT_T0_ES6_PKS3_l
00000000001119a0 w _ZStlsIwSt11char_traitsIwEERSt13basic_ostreamIT_T0_ES6_S3_
00000000001119c0 w _ZStlsIwSt11char_traitsIwEERSt13basic_ostreamIT_T0_ES6_c
0000000000111a30 w _ZStlsIwSt11char_traitsIwEERSt13basic_ostreamIT_T0_ES6_PKS3_
0000000000111a90 w _ZStlsIwSt11char_traitsIwEERSt13basic_ostreamIT_T0_ES6_PKc
0000000000111c20 w _ZNSt13basic_ostreamIwSt11char_traitsIwEE9_M_insertIlEERS2_T_
0000000000111e10 w _ZNSt13basic_ostreamIwSt11char_traitsIwEElsEl
0000000000111e20 w _ZNSt13basic_ostreamIwSt11char_traitsIwEElsEs
0000000000111e50 w _ZNSt13basic_ostreamIwSt11char_traitsIwEElsEi
0000000000111e80 w _ZNSt13basic_ostreamIwSt11char_traitsIwEE9_M_insertImEERS2_T_
0000000000112070 w _ZNSt13basic_ostreamIwSt11char_traitsIwEElsEm
0000000000112080 w _ZNSt13basic_ostreamIwSt11char_traitsIwEElsEt
0000000000112090 w _ZNSt13basic_ostreamIwSt11char_traitsIwEElsEj
00000000001120a0 w _ZNSt13basic_ostreamIwSt11char_traitsIwEE9_M_insertIbEERS2_T_
0000000000112290 w _ZNSt13basic_ostreamIwSt11char_traitsIwEElsEb
00000000001122a0 w _ZNSt13basic_ostreamIwSt11char_traitsIwEE9_M_insertIxEERS2_T_
0000000000112490 w _ZNSt13basic_ostreamIwSt11char_traitsIwEElsEx
00000000001124a0 w _ZNSt13basic_ostreamIwSt11char_traitsIwEE9_M_insertIyEERS2_T_
0000000000112690 w _ZNSt13basic_ostreamIwSt11char_traitsIwEElsEy
00000000001126a0 w _ZNSt13basic_ostreamIwSt11char_traitsIwEE9_M_insertIdEERS2_T_
0000000000112890 w _ZNSt13basic_ostreamIwSt11char_traitsIwEElsEd
00000000001128a0 w _ZNSt13basic_ostreamIwSt11char_traitsIwEElsEf
00000000001128b0 w _ZNSt13basic_ostreamIwSt11char_traitsIwEE9_M_insertIeEERS2_T_
0000000000112aa0 w _ZNSt13basic_ostreamIwSt11char_traitsIwEElsEe
0000000000112ab0 w _ZNSt13basic_ostreamIwSt11char_traitsIwEE9_M_insertIPKvEERS2_T_
0000000000112ca0 w _ZNSt13basic_ostreamIwSt11char_traitsIwEElsEPKv
0000000000112cb0 w _ZNSt7__cxx1115basic_stringbufIcSt11char_traitsIcESaIcEE9showmanycEv
0000000000112ce0 w _ZNSt7__cxx1115basic_stringbufIcSt11char_traitsIcESaIcEE9underflowEv
0000000000112d20 w _ZNSt7__cxx1115basic_stringbufIcSt11char_traitsIcESaIcEE9pbackfailEi
0000000000112d80 w _ZNSt7__cxx1115basic_stringbufIwSt11char_traitsIwESaIwEE9showmanycEv
0000000000112dc0 w _ZNSt7__cxx1115basic_stringbufIwSt11char_traitsIwESaIwEE9underflowEv
0000000000112e00 w _ZNSt7__cxx1115basic_stringbufIwSt11char_traitsIwESaIwEE9pbackfailEj
0000000000112f30 w _ZNSt7__cxx1119basic_istringstreamIwSt11char_traitsIwESaIwEED0Ev
0000000000112fb0 w _ZTv0_n24_NSt7__cxx1119basic_istringstreamIwSt11char_traitsIwESaIwEED0Ev
0000000000112fc0 w _ZNSt7__cxx1118basic_stringstreamIwSt11char_traitsIwESaIwEED0Ev
0000000000113050 w _ZThn16_NSt7__cxx1118basic_stringstreamIwSt11char_traitsIwESaIwEED0Ev
0000000000113060 w _ZTv0_n24_NSt7__cxx1118basic_stringstreamIwSt11char_traitsIwESaIwEED0Ev
0000000000113070 w _ZNSt7__cxx1118basic_stringstreamIcSt11char_traitsIcESaIcEED0Ev
0000000000113100 w _ZThn16_NSt7__cxx1118basic_stringstreamIcSt11char_traitsIcESaIcEED0Ev
0000000000113110 w _ZTv0_n24_NSt7__cxx1118basic_stringstreamIcSt11char_traitsIcESaIcEED0Ev
0000000000113120 w _ZNSt7__cxx1119basic_istringstreamIcSt11char_traitsIcESaIcEED0Ev
00000000001131a0 w _ZTv0_n24_NSt7__cxx1119basic_istringstreamIcSt11char_traitsIcESaIcEED0Ev
00000000001131b0 w _ZNSt7__cxx1119basic_ostringstreamIcSt11char_traitsIcESaIcEED0Ev
0000000000113230 w _ZTv0_n24_NSt7__cxx1119basic_ostringstreamIcSt11char_traitsIcESaIcEED0Ev
0000000000113240 w _ZNSt7__cxx1119basic_ostringstreamIwSt11char_traitsIwESaIwEED0Ev
00000000001132c0 w _ZTv0_n24_NSt7__cxx1119basic_ostringstreamIwSt11char_traitsIwESaIwEED0Ev
00000000001132d0 w _ZNSt7__cxx1119basic_ostringstreamIcSt11char_traitsIcESaIcEED1Ev
0000000000113340 w _ZTv0_n24_NSt7__cxx1119basic_ostringstreamIcSt11char_traitsIcESaIcEED1Ev
0000000000113350 w _ZNSt7__cxx1119basic_ostringstreamIwSt11char_traitsIwESaIwEED1Ev
00000000001133c0 w _ZTv0_n24_NSt7__cxx1119basic_ostringstreamIwSt11char_traitsIwESaIwEED1Ev
00000000001133d0 w _ZNSt7__cxx1119basic_istringstreamIwSt11char_traitsIwESaIwEED1Ev
0000000000113440 w _ZTv0_n24_NSt7__cxx1119basic_istringstreamIwSt11char_traitsIwESaIwEED1Ev
0000000000113450 w _ZNSt7__cxx1119basic_istringstreamIcSt11char_traitsIcESaIcEED1Ev
00000000001134c0 w _ZTv0_n24_NSt7__cxx1119basic_istringstreamIcSt11char_traitsIcESaIcEED1Ev
00000000001134d0 w _ZNSt7__cxx1118basic_stringstreamIwSt11char_traitsIwESaIwEED1Ev
0000000000113550 w _ZThn16_NSt7__cxx1118basic_stringstreamIwSt11char_traitsIwESaIwEED1Ev
0000000000113560 w _ZTv0_n24_NSt7__cxx1118basic_stringstreamIwSt11char_traitsIwESaIwEED1Ev
0000000000113570 w _ZNSt7__cxx1118basic_stringstreamIcSt11char_traitsIcESaIcEED1Ev
00000000001135f0 w _ZThn16_NSt7__cxx1118basic_stringstreamIcSt11char_traitsIcESaIcEED1Ev
0000000000113600 w _ZTv0_n24_NSt7__cxx1118basic_stringstreamIcSt11char_traitsIcESaIcEED1Ev
0000000000113610 w _ZNSt7__cxx1115basic_stringbufIcSt11char_traitsIcESaIcEEC2ESt13_Ios_Openmode
0000000000113690 w _ZNKSt7__cxx1115basic_stringbufIcSt11char_traitsIcESaIcEE3strEv
0000000000113790 w _ZNSt7__cxx1115basic_stringbufIcSt11char_traitsIcESaIcEE15_M_update_egptrEv
00000000001137d0 w _ZNSt7__cxx1115basic_stringbufIcSt11char_traitsIcESaIcEE8_M_pbumpEPcS5_l
0000000000113820 w _ZNSt7__cxx1115basic_stringbufIcSt11char_traitsIcESaIcEE7seekoffElSt12_Ios_SeekdirSt13_Ios_Openmode
00000000001139d0 w _ZNSt7__cxx1115basic_stringbufIcSt11char_traitsIcESaIcEE7seekposESt4fposI11__mbstate_tESt13_Ios_Openmode
0000000000113ae0 w _ZNSt7__cxx1115basic_stringbufIcSt11char_traitsIcESaIcEE7_M_syncEPcmm
0000000000113b90 w _ZNSt7__cxx1115basic_stringbufIcSt11char_traitsIcESaIcEE17_M_stringbuf_initESt13_Ios_Openmode
0000000000113bb0 w _ZNSt7__cxx1115basic_stringbufIcSt11char_traitsIcESaIcEE3strERKNS_12basic_stringIcS2_S3_EE
0000000000113bf0 w _ZNSt7__cxx1115basic_stringbufIcSt11char_traitsIcESaIcEE8overflowEi
0000000000113e20 w _ZNSt7__cxx1115basic_stringbufIcSt11char_traitsIcESaIcEE6setbufEPcl
0000000000113e50 w _ZNSt7__cxx1115basic_stringbufIcSt11char_traitsIcESaIcEEC1ERKNS_12basic_stringIcS2_S3_EESt13_Ios_Openmode
0000000000113f30 w _ZNSt7__cxx1115basic_stringbufIcSt11char_traitsIcESaIcEEC1EOS4_ONS4_14__xfer_bufptrsE
0000000000113fc0 w _ZNSt7__cxx1115basic_stringbufIcSt11char_traitsIcESaIcEE14__xfer_bufptrsC2ERKS4_PS4_
0000000000114050 w _ZNSt7__cxx1115basic_stringbufIcSt11char_traitsIcESaIcEE14__xfer_bufptrsD2Ev
00000000001140b0 w _ZNSt7__cxx1115basic_stringbufIcSt11char_traitsIcESaIcEE4swapERS4_
0000000000114480 w _ZNSt7__cxx1115basic_stringbufIcSt11char_traitsIcESaIcEEaSEOS4_
0000000000114660 w _ZNSt7__cxx1115basic_stringbufIcSt11char_traitsIcESaIcEEC1EOS4_
0000000000114830 w _ZNSt7__cxx1119basic_istringstreamIcSt11char_traitsIcESaIcEEC2ESt13_Ios_Openmode
0000000000114940 w _ZNSt7__cxx1119basic_istringstreamIcSt11char_traitsIcESaIcEEC1ESt13_Ios_Openmode
0000000000114aa0 w _ZNSt7__cxx1119basic_istringstreamIcSt11char_traitsIcESaIcEEC2ERKNS_12basic_stringIcS2_S3_EESt13_Ios_Openmode
0000000000114c20 w _ZNSt7__cxx1119basic_istringstreamIcSt11char_traitsIcESaIcEEC1ERKNS_12basic_stringIcS2_S3_EESt13_Ios_Openmode
0000000000114df0 w _ZNSt7__cxx1119basic_istringstreamIcSt11char_traitsIcESaIcEED2Ev
0000000000114e70 w _ZNSt7__cxx1119basic_istringstreamIcSt11char_traitsIcESaIcEEC2EOS4_
0000000000115120 w _ZNSt7__cxx1119basic_istringstreamIcSt11char_traitsIcESaIcEEC1EOS4_
0000000000115420 w _ZNSt7__cxx1119basic_istringstreamIcSt11char_traitsIcESaIcEEaSEOS4_
0000000000115690 w _ZNSt7__cxx1119basic_istringstreamIcSt11char_traitsIcESaIcEE4swapERS4_
0000000000115b00 w _ZNKSt7__cxx1119basic_istringstreamIcSt11char_traitsIcESaIcEE5rdbufEv
0000000000115b10 w _ZNKSt7__cxx1119basic_istringstreamIcSt11char_traitsIcESaIcEE3strEv
0000000000115c10 w _ZNSt7__cxx1119basic_istringstreamIcSt11char_traitsIcESaIcEE3strERKNS_12basic_stringIcS2_S3_EE
0000000000115c60 w _ZNSt7__cxx1119basic_ostringstreamIcSt11char_traitsIcESaIcEEC2ESt13_Ios_Openmode
0000000000115d60 w _ZNSt7__cxx1119basic_ostringstreamIcSt11char_traitsIcESaIcEEC1ESt13_Ios_Openmode
0000000000115ec0 w _ZNSt7__cxx1119basic_ostringstreamIcSt11char_traitsIcESaIcEEC2ERKNS_12basic_stringIcS2_S3_EESt13_Ios_Openmode
0000000000116030 w _ZNSt7__cxx1119basic_ostringstreamIcSt11char_traitsIcESaIcEEC1ERKNS_12basic_stringIcS2_S3_EESt13_Ios_Openmode
0000000000116200 w _ZNSt7__cxx1119basic_ostringstreamIcSt11char_traitsIcESaIcEED2Ev
0000000000116280 w _ZNSt7__cxx1119basic_ostringstreamIcSt11char_traitsIcESaIcEEC2EOS4_
0000000000116520 w _ZNSt7__cxx1119basic_ostringstreamIcSt11char_traitsIcESaIcEEC1EOS4_
0000000000116810 w _ZNSt7__cxx1119basic_ostringstreamIcSt11char_traitsIcESaIcEEaSEOS4_
0000000000116a60 w _ZNSt7__cxx1119basic_ostringstreamIcSt11char_traitsIcESaIcEE4swapERS4_
0000000000116ec0 w _ZNKSt7__cxx1119basic_ostringstreamIcSt11char_traitsIcESaIcEE5rdbufEv
0000000000116ed0 w _ZNKSt7__cxx1119basic_ostringstreamIcSt11char_traitsIcESaIcEE3strEv
0000000000116fd0 w _ZNSt7__cxx1119basic_ostringstreamIcSt11char_traitsIcESaIcEE3strERKNS_12basic_stringIcS2_S3_EE
0000000000117020 w _ZNSt7__cxx1118basic_stringstreamIcSt11char_traitsIcESaIcEEC2ESt13_Ios_Openmode
00000000001171c0 w _ZNSt7__cxx1118basic_stringstreamIcSt11char_traitsIcESaIcEEC1ESt13_Ios_Openmode
0000000000117350 w _ZNSt7__cxx1118basic_stringstreamIcSt11char_traitsIcESaIcEEC2ERKNS_12basic_stringIcS2_S3_EESt13_Ios_Openmode
0000000000117550 w _ZNSt7__cxx1118basic_stringstreamIcSt11char_traitsIcESaIcEEC1ERKNS_12basic_stringIcS2_S3_EESt13_Ios_Openmode
0000000000117750 w _ZNSt7__cxx1118basic_stringstreamIcSt11char_traitsIcESaIcEED2Ev
0000000000117800 w _ZNSt7__cxx1118basic_stringstreamIcSt11char_traitsIcESaIcEEC2EOS4_
0000000000117b20 w _ZNSt7__cxx1118basic_stringstreamIcSt11char_traitsIcESaIcEEC1EOS4_
0000000000117e30 w _ZNSt7__cxx1118basic_stringstreamIcSt11char_traitsIcESaIcEEaSEOS4_
00000000001180a0 w _ZNSt7__cxx1118basic_stringstreamIcSt11char_traitsIcESaIcEE4swapERS4_
0000000000118510 w _ZNKSt7__cxx1118basic_stringstreamIcSt11char_traitsIcESaIcEE5rdbufEv
0000000000118520 w _ZNKSt7__cxx1118basic_stringstreamIcSt11char_traitsIcESaIcEE3strEv
0000000000118620 w _ZNSt7__cxx1118basic_stringstreamIcSt11char_traitsIcESaIcEE3strERKNS_12basic_stringIcS2_S3_EE
0000000000118670 w _ZNSt7__cxx1115basic_stringbufIwSt11char_traitsIwESaIwEEC2ESt13_Ios_Openmode
0000000000118700 w _ZNKSt7__cxx1115basic_stringbufIwSt11char_traitsIwESaIwEE3strEv
0000000000118820 w _ZNSt7__cxx1115basic_stringbufIwSt11char_traitsIwESaIwEE15_M_update_egptrEv
0000000000118860 w _ZNSt7__cxx1115basic_stringbufIwSt11char_traitsIwESaIwEE8_M_pbumpEPwS5_l
00000000001188a0 w _ZNSt7__cxx1115basic_stringbufIwSt11char_traitsIwESaIwEE7seekoffElSt12_Ios_SeekdirSt13_Ios_Openmode
0000000000118a50 w _ZNSt7__cxx1115basic_stringbufIwSt11char_traitsIwESaIwEE7seekposESt4fposI11__mbstate_tESt13_Ios_Openmode
0000000000118b60 w _ZNSt7__cxx1115basic_stringbufIwSt11char_traitsIwESaIwEE7_M_syncEPwmm
0000000000118c10 w _ZNSt7__cxx1115basic_stringbufIwSt11char_traitsIwESaIwEE17_M_stringbuf_initESt13_Ios_Openmode
0000000000118c30 w _ZNSt7__cxx1115basic_stringbufIwSt11char_traitsIwESaIwEE3strERKNS_12basic_stringIwS2_S3_EE
0000000000118c70 w _ZNSt7__cxx1115basic_stringbufIwSt11char_traitsIwESaIwEE8overflowEj
0000000000118ea0 w _ZNSt7__cxx1115basic_stringbufIwSt11char_traitsIwESaIwEE6setbufEPwl
0000000000118ed0 w _ZNSt7__cxx1115basic_stringbufIwSt11char_traitsIwESaIwEEC1ERKNS_12basic_stringIwS2_S3_EESt13_Ios_Openmode
0000000000118fd0 w _ZNSt7__cxx1115basic_stringbufIwSt11char_traitsIwESaIwEEC2EOS4_ONS4_14__xfer_bufptrsE
0000000000119050 w _ZNSt7__cxx1115basic_stringbufIwSt11char_traitsIwESaIwEE14__xfer_bufptrsC2ERKS4_PS4_
0000000000119100 w _ZNSt7__cxx1115basic_stringbufIwSt11char_traitsIwESaIwEE14__xfer_bufptrsD1Ev
0000000000119160 w _ZNSt7__cxx1115basic_stringbufIwSt11char_traitsIwESaIwEE4swapERS4_
0000000000119570 w _ZNSt7__cxx1115basic_stringbufIwSt11char_traitsIwESaIwEEaSEOS4_
0000000000119770 w _ZNSt7__cxx1115basic_stringbufIwSt11char_traitsIwESaIwEEC1EOS4_
0000000000119970 w _ZNSt7__cxx1119basic_istringstreamIwSt11char_traitsIwESaIwEEC2ESt13_Ios_Openmode
0000000000119a80 w _ZNSt7__cxx1119basic_istringstreamIwSt11char_traitsIwESaIwEEC1ESt13_Ios_Openmode
0000000000119be0 w _ZNSt7__cxx1119basic_istringstreamIwSt11char_traitsIwESaIwEEC2ERKNS_12basic_stringIwS2_S3_EESt13_Ios_Openmode
0000000000119d70 w _ZNSt7__cxx1119basic_istringstreamIwSt11char_traitsIwESaIwEEC1ERKNS_12basic_stringIwS2_S3_EESt13_Ios_Openmode
0000000000119f60 w _ZNSt7__cxx1119basic_istringstreamIwSt11char_traitsIwESaIwEED2Ev
0000000000119fe0 w _ZNSt7__cxx1119basic_istringstreamIwSt11char_traitsIwESaIwEEC2EOS4_
000000000011a2c0 w _ZNSt7__cxx1119basic_istringstreamIwSt11char_traitsIwESaIwEEC1EOS4_
000000000011a5e0 w _ZNSt7__cxx1119basic_istringstreamIwSt11char_traitsIwESaIwEEaSEOS4_
000000000011a860 w _ZNSt7__cxx1119basic_istringstreamIwSt11char_traitsIwESaIwEE4swapERS4_
000000000011ad10 w _ZNKSt7__cxx1119basic_istringstreamIwSt11char_traitsIwESaIwEE5rdbufEv
000000000011ad20 w _ZNKSt7__cxx1119basic_istringstreamIwSt11char_traitsIwESaIwEE3strEv
000000000011ae40 w _ZNSt7__cxx1119basic_istringstreamIwSt11char_traitsIwESaIwEE3strERKNS_12basic_stringIwS2_S3_EE
000000000011ae90 w _ZNSt7__cxx1119basic_ostringstreamIwSt11char_traitsIwESaIwEEC2ESt13_Ios_Openmode
000000000011af90 w _ZNSt7__cxx1119basic_ostringstreamIwSt11char_traitsIwESaIwEEC1ESt13_Ios_Openmode
000000000011b0f0 w _ZNSt7__cxx1119basic_ostringstreamIwSt11char_traitsIwESaIwEEC2ERKNS_12basic_stringIwS2_S3_EESt13_Ios_Openmode
000000000011b270 w _ZNSt7__cxx1119basic_ostringstreamIwSt11char_traitsIwESaIwEEC1ERKNS_12basic_stringIwS2_S3_EESt13_Ios_Openmode
000000000011b450 w _ZNSt7__cxx1119basic_ostringstreamIwSt11char_traitsIwESaIwEED2Ev
000000000011b4d0 w _ZNSt7__cxx1119basic_ostringstreamIwSt11char_traitsIwESaIwEEC2EOS4_
000000000011b7a0 w _ZNSt7__cxx1119basic_ostringstreamIwSt11char_traitsIwESaIwEEC1EOS4_
000000000011bab0 w _ZNSt7__cxx1119basic_ostringstreamIwSt11char_traitsIwESaIwEEaSEOS4_
000000000011bd20 w _ZNSt7__cxx1119basic_ostringstreamIwSt11char_traitsIwESaIwEE4swapERS4_
000000000011c1c0 w _ZNKSt7__cxx1119basic_ostringstreamIwSt11char_traitsIwESaIwEE5rdbufEv
000000000011c1d0 w _ZNKSt7__cxx1119basic_ostringstreamIwSt11char_traitsIwESaIwEE3strEv
000000000011c2f0 w _ZNSt7__cxx1119basic_ostringstreamIwSt11char_traitsIwESaIwEE3strERKNS_12basic_stringIwS2_S3_EE
000000000011c340 w _ZNSt7__cxx1118basic_stringstreamIwSt11char_traitsIwESaIwEEC2ESt13_Ios_Openmode
000000000011c4e0 w _ZNSt7__cxx1118basic_stringstreamIwSt11char_traitsIwESaIwEEC1ESt13_Ios_Openmode
000000000011c680 w _ZNSt7__cxx1118basic_stringstreamIwSt11char_traitsIwESaIwEEC2ERKNS_12basic_stringIwS2_S3_EESt13_Ios_Openmode
000000000011c8a0 w _ZNSt7__cxx1118basic_stringstreamIwSt11char_traitsIwESaIwEEC1ERKNS_12basic_stringIwS2_S3_EESt13_Ios_Openmode
000000000011cac0 w _ZNSt7__cxx1118basic_stringstreamIwSt11char_traitsIwESaIwEED2Ev
000000000011cb70 w _ZNSt7__cxx1118basic_stringstreamIwSt11char_traitsIwESaIwEEC2EOS4_
000000000011ceb0 w _ZNSt7__cxx1118basic_stringstreamIwSt11char_traitsIwESaIwEEC1EOS4_
000000000011d1e0 w _ZNSt7__cxx1118basic_stringstreamIwSt11char_traitsIwESaIwEEaSEOS4_
000000000011d460 w _ZNSt7__cxx1118basic_stringstreamIwSt11char_traitsIwESaIwEE4swapERS4_
000000000011d910 w _ZNKSt7__cxx1118basic_stringstreamIwSt11char_traitsIwESaIwEE5rdbufEv
000000000011d920 w _ZNKSt7__cxx1118basic_stringstreamIwSt11char_traitsIwESaIwEE3strEv
000000000011da40 w _ZNSt7__cxx1118basic_stringstreamIwSt11char_traitsIwESaIwEE3strERKNS_12basic_stringIwS2_S3_EE
000000000011da90 w _ZNSt15basic_streambufIcSt11char_traitsIcEE5imbueERKSt6locale
000000000011daa0 w _ZNSt15basic_streambufIcSt11char_traitsIcEE6setbufEPcl
000000000011dab0 w _ZNSt15basic_streambufIcSt11char_traitsIcEE7seekoffElSt12_Ios_SeekdirSt13_Ios_Openmode
000000000011daf0 w _ZNSt15basic_streambufIcSt11char_traitsIcEE7seekposESt4fposI11__mbstate_tESt13_Ios_Openmode
000000000011db30 w _ZNSt15basic_streambufIcSt11char_traitsIcEE4syncEv
000000000011db40 w _ZNSt15basic_streambufIcSt11char_traitsIcEE9showmanycEv
000000000011db50 w _ZNSt15basic_streambufIcSt11char_traitsIcEE9underflowEv
000000000011db60 w _ZNSt15basic_streambufIcSt11char_traitsIcEE9pbackfailEi
000000000011db70 w _ZNSt15basic_streambufIcSt11char_traitsIcEE8overflowEi
000000000011db80 w _ZNSt15basic_streambufIwSt11char_traitsIwEE5imbueERKSt6locale
000000000011db90 w _ZNSt15basic_streambufIwSt11char_traitsIwEE6setbufEPwl
000000000011dba0 w _ZNSt15basic_streambufIwSt11char_traitsIwEE7seekoffElSt12_Ios_SeekdirSt13_Ios_Openmode
000000000011dbe0 w _ZNSt15basic_streambufIwSt11char_traitsIwEE7seekposESt4fposI11__mbstate_tESt13_Ios_Openmode
000000000011dc20 w _ZNSt15basic_streambufIwSt11char_traitsIwEE4syncEv
000000000011dc30 w _ZNSt15basic_streambufIwSt11char_traitsIwEE9showmanycEv
000000000011dc40 w _ZNSt15basic_streambufIwSt11char_traitsIwEE9underflowEv
000000000011dc50 w _ZNSt15basic_streambufIwSt11char_traitsIwEE9pbackfailEj
000000000011dc60 w _ZNSt15basic_streambufIwSt11char_traitsIwEE8overflowEj
000000000011dc70 w _ZNSt15basic_streambufIcSt11char_traitsIcEED1Ev
000000000011dc90 w _ZNSt15basic_streambufIwSt11char_traitsIwEED1Ev
000000000011dcb0 w _ZNSt15basic_streambufIcSt11char_traitsIcEED0Ev
000000000011dce0 w _ZNSt15basic_streambufIwSt11char_traitsIwEED0Ev
000000000011dd10 w _ZNSt15basic_streambufIwSt11char_traitsIwEE6xsputnEPKwl
000000000011ddf0 w _ZNSt15basic_streambufIcSt11char_traitsIcEE6xsputnEPKcl
000000000011dea0 w _ZNSt15basic_streambufIwSt11char_traitsIwEE5uflowEv
000000000011dee0 w _ZNSt15basic_streambufIcSt11char_traitsIcEE5uflowEv
000000000011df30 w _ZNSt15basic_streambufIcSt11char_traitsIcEE6xsgetnEPcl
000000000011e010 w _ZNSt15basic_streambufIwSt11char_traitsIwEE6xsgetnEPwl
000000000011e110 w _ZNSt15basic_streambufIcSt11char_traitsIcEE8pubimbueERKSt6locale
000000000011e180 w _ZNKSt15basic_streambufIcSt11char_traitsIcEE6getlocEv
000000000011e1a0 w _ZNSt15basic_streambufIcSt11char_traitsIcEE9pubsetbufEPcl
000000000011e1c0 w _ZNSt15basic_streambufIcSt11char_traitsIcEE10pubseekoffElSt12_Ios_SeekdirSt13_Ios_Openmode
000000000011e220 w _ZNSt15basic_streambufIcSt11char_traitsIcEE10pubseekposESt4fposI11__mbstate_tESt13_Ios_Openmode
000000000011e280 w _ZNSt15basic_streambufIcSt11char_traitsIcEE7pubsyncEv
000000000011e2a0 w _ZNSt15basic_streambufIcSt11char_traitsIcEE8in_availEv
000000000011e2d0 w _ZNSt15basic_streambufIcSt11char_traitsIcEE6snextcEv
000000000011e380 w _ZNSt15basic_streambufIcSt11char_traitsIcEE6sbumpcEv
000000000011e400 w _ZNSt15basic_streambufIcSt11char_traitsIcEE5sgetcEv
000000000011e440 w _ZNSt15basic_streambufIcSt11char_traitsIcEE5sgetnEPcl
000000000011e450 w _ZNSt15basic_streambufIcSt11char_traitsIcEE9sputbackcEc
000000000011e4a0 w _ZNSt15basic_streambufIcSt11char_traitsIcEE7sungetcEv
000000000011e4f0 w _ZNSt15basic_streambufIcSt11char_traitsIcEE5sputcEc
000000000011e540 w _ZNSt15basic_streambufIcSt11char_traitsIcEE5sputnEPKcl
000000000011e550 w _ZNSt15basic_streambufIcSt11char_traitsIcEEC2Ev
000000000011e5a0 w _ZNKSt15basic_streambufIcSt11char_traitsIcEE5ebackEv
000000000011e5b0 w _ZNKSt15basic_streambufIcSt11char_traitsIcEE4gptrEv
000000000011e5c0 w _ZNKSt15basic_streambufIcSt11char_traitsIcEE5egptrEv
000000000011e5d0 w _ZNSt15basic_streambufIcSt11char_traitsIcEE5gbumpEi
000000000011e5e0 w _ZNSt15basic_streambufIcSt11char_traitsIcEE4setgEPcS3_S3_
000000000011e5f0 w _ZNKSt15basic_streambufIcSt11char_traitsIcEE5pbaseEv
000000000011e600 w _ZNKSt15basic_streambufIcSt11char_traitsIcEE4pptrEv
000000000011e610 w _ZNKSt15basic_streambufIcSt11char_traitsIcEE5epptrEv
000000000011e620 w _ZNSt15basic_streambufIcSt11char_traitsIcEE5pbumpEi
000000000011e630 w _ZNSt15basic_streambufIcSt11char_traitsIcEE4setpEPcS3_
000000000011e640 w _ZNSt15basic_streambufIcSt11char_traitsIcEE6stosscEv
000000000011e6a0 w _ZNSt15basic_streambufIcSt11char_traitsIcEE12__safe_gbumpEl
000000000011e6b0 w _ZNSt15basic_streambufIcSt11char_traitsIcEE12__safe_pbumpEl
000000000011e6c0 w _ZNSt15basic_streambufIcSt11char_traitsIcEEC1ERKS2_
000000000011e710 w _ZNSt15basic_streambufIcSt11char_traitsIcEEaSERKS2_
000000000011e760 w _ZNSt15basic_streambufIcSt11char_traitsIcEE4swapERS2_
000000000011e830 w _ZSt17__copy_streambufsIcSt11char_traitsIcEElPSt15basic_streambufIT_T0_ES6_
000000000011e870 w _ZNSt15basic_streambufIwSt11char_traitsIwEE8pubimbueERKSt6locale
000000000011e8e0 w _ZNKSt15basic_streambufIwSt11char_traitsIwEE6getlocEv
000000000011e900 w _ZNSt15basic_streambufIwSt11char_traitsIwEE9pubsetbufEPwl
000000000011e920 w _ZNSt15basic_streambufIwSt11char_traitsIwEE10pubseekoffElSt12_Ios_SeekdirSt13_Ios_Openmode
000000000011e980 w _ZNSt15basic_streambufIwSt11char_traitsIwEE10pubseekposESt4fposI11__mbstate_tESt13_Ios_Openmode
000000000011e9e0 w _ZNSt15basic_streambufIwSt11char_traitsIwEE7pubsyncEv
000000000011ea00 w _ZNSt15basic_streambufIwSt11char_traitsIwEE8in_availEv
000000000011ea40 w _ZNSt15basic_streambufIwSt11char_traitsIwEE6snextcEv
000000000011ead0 w _ZNSt15basic_streambufIwSt11char_traitsIwEE6sbumpcEv
000000000011eb40 w _ZNSt15basic_streambufIwSt11char_traitsIwEE5sgetcEv
000000000011eb80 w _ZNSt15basic_streambufIwSt11char_traitsIwEE5sgetnEPwl
000000000011eb90 w _ZNSt15basic_streambufIwSt11char_traitsIwEE9sputbackcEw
000000000011ebe0 w _ZNSt15basic_streambufIwSt11char_traitsIwEE7sungetcEv
000000000011ec30 w _ZNSt15basic_streambufIwSt11char_traitsIwEE5sputcEw
000000000011ec80 w _ZNSt15basic_streambufIwSt11char_traitsIwEE5sputnEPKwl
000000000011ec90 w _ZNSt15basic_streambufIwSt11char_traitsIwEEC2Ev
000000000011ece0 w _ZNKSt15basic_streambufIwSt11char_traitsIwEE5ebackEv
000000000011ecf0 w _ZNKSt15basic_streambufIwSt11char_traitsIwEE4gptrEv
000000000011ed00 w _ZNKSt15basic_streambufIwSt11char_traitsIwEE5egptrEv
000000000011ed10 w _ZNSt15basic_streambufIwSt11char_traitsIwEE5gbumpEi
000000000011ed20 w _ZNSt15basic_streambufIwSt11char_traitsIwEE4setgEPwS3_S3_
000000000011ed30 w _ZNKSt15basic_streambufIwSt11char_traitsIwEE5pbaseEv
000000000011ed40 w _ZNKSt15basic_streambufIwSt11char_traitsIwEE4pptrEv
000000000011ed50 w _ZNKSt15basic_streambufIwSt11char_traitsIwEE5epptrEv
000000000011ed60 w _ZNSt15basic_streambufIwSt11char_traitsIwEE5pbumpEi
000000000011ed70 w _ZNSt15basic_streambufIwSt11char_traitsIwEE4setpEPwS3_
000000000011ed80 w _ZNSt15basic_streambufIwSt11char_traitsIwEE6stosscEv
000000000011ede0 w _ZNSt15basic_streambufIwSt11char_traitsIwEE12__safe_gbumpEl
000000000011edf0 w _ZNSt15basic_streambufIwSt11char_traitsIwEE12__safe_pbumpEl
000000000011ee00 w _ZNSt15basic_streambufIwSt11char_traitsIwEEC1ERKS2_
000000000011ee50 w _ZNSt15basic_streambufIwSt11char_traitsIwEEaSERKS2_
000000000011eea0 w _ZNSt15basic_streambufIwSt11char_traitsIwEE4swapERS2_
000000000011ef70 w _ZSt17__copy_streambufsIwSt11char_traitsIwEElPSt15basic_streambufIT_T0_ES6_
000000000011efb0 w _ZNSt7__cxx1112basic_stringIcSt11char_traitsIcESaIcEE7_M_dataEPc
000000000011efc0 w _ZNSt7__cxx1112basic_stringIcSt11char_traitsIcESaIcEE9_M_lengthEm
000000000011efd0 w _ZNKSt7__cxx1112basic_stringIcSt11char_traitsIcESaIcEE7_M_dataEv
000000000011efe0 w _ZNSt7__cxx1112basic_stringIcSt11char_traitsIcESaIcEE13_M_local_dataEv
000000000011eff0 w _ZNKSt7__cxx1112basic_stringIcSt11char_traitsIcESaIcEE13_M_local_dataEv
000000000011f000 w _ZNSt7__cxx1112basic_stringIcSt11char_traitsIcESaIcEE11_M_capacityEm
000000000011f010 w _ZNSt7__cxx1112basic_stringIcSt11char_traitsIcESaIcEE13_M_set_lengthEm
000000000011f020 w _ZNKSt7__cxx1112basic_stringIcSt11char_traitsIcESaIcEE11_M_is_localEv
000000000011f030 w _ZNSt7__cxx1112basic_stringIcSt11char_traitsIcESaIcEE9_M_createERmm
000000000011f0a0 w _ZNSt7__cxx1112basic_stringIcSt11char_traitsIcESaIcEE10_M_disposeEv
000000000011f0c0 w _ZNSt7__cxx1112basic_stringIcSt11char_traitsIcESaIcEE10_M_destroyEm
000000000011f0d0 w _ZNSt7__cxx1112basic_stringIcSt11char_traitsIcESaIcEE12_M_constructEmc
000000000011f160 w _ZNSt7__cxx1112basic_stringIcSt11char_traitsIcESaIcEE18_M_construct_aux_2Emc
000000000011f170 w _ZNSt7__cxx1112basic_stringIcSt11char_traitsIcESaIcEE16_M_get_allocatorEv
000000000011f180 w _ZNKSt7__cxx1112basic_stringIcSt11char_traitsIcESaIcEE16_M_get_allocatorEv
000000000011f190 w _ZNKSt7__cxx1112basic_stringIcSt11char_traitsIcESaIcEE8_M_checkEmPKc
000000000011f1c0 w _ZNKSt7__cxx1112basic_stringIcSt11char_traitsIcESaIcEE15_M_check_lengthEmmPKc
000000000011f1f0 w _ZNKSt7__cxx1112basic_stringIcSt11char_traitsIcESaIcEE8_M_limitEmm
000000000011f200 w _ZNKSt7__cxx1112basic_stringIcSt11char_traitsIcESaIcEE11_M_disjunctEPKc
000000000011f220 w _ZNSt7__cxx1112basic_stringIcSt11char_traitsIcESaIcEE7_S_copyEPcPKcm
000000000011f240 w _ZNSt7__cxx1112basic_stringIcSt11char_traitsIcESaIcEE7_S_moveEPcPKcm
000000000011f260 w _ZNSt7__cxx1112basic_stringIcSt11char_traitsIcESaIcEE9_S_assignEPcmc
000000000011f290 w _ZNSt7__cxx1112basic_stringIcSt11char_traitsIcESaIcEE13_S_copy_charsEPcN9__gnu_cxx17__normal_iteratorIS5_S4_EES8_
000000000011f2b0 w _ZNSt7__cxx1112basic_stringIcSt11char_traitsIcESaIcEE13_S_copy_charsEPcN9__gnu_cxx17__normal_iteratorIPKcS4_EESA_
000000000011f2d0 w _ZNSt7__cxx1112basic_stringIcSt11char_traitsIcESaIcEE13_S_copy_charsEPcS5_S5_
000000000011f2f0 w _ZNSt7__cxx1112basic_stringIcSt11char_traitsIcESaIcEE13_S_copy_charsEPcPKcS7_
000000000011f310 w _ZNSt7__cxx1112basic_stringIcSt11char_traitsIcESaIcEE10_S_compareEmm
000000000011f340 w _ZNSt7__cxx1112basic_stringIcSt11char_traitsIcESaIcEE9_M_assignERKS4_
000000000011f430 w _ZNSt7__cxx1112basic_stringIcSt11char_traitsIcESaIcEE9_M_mutateEmmPKcm
000000000011f5a0 w _ZNSt7__cxx1112basic_stringIcSt11char_traitsIcESaIcEE8_M_eraseEmm
000000000011f610 w _ZNSt7__cxx1112basic_stringIcSt11char_traitsIcESaIcEEC2Ev
000000000011f630 w _ZNSt7__cxx1112basic_stringIcSt11char_traitsIcESaIcEEC1ERKS3_
000000000011f650 w _ZNSt7__cxx1112basic_stringIcSt11char_traitsIcESaIcEEC1EmcRKS3_
000000000011f660 w _ZNSt7__cxx1112basic_stringIcSt11char_traitsIcESaIcEEC1EOS4_
000000000011f6c0 w _ZNSt7__cxx1112basic_stringIcSt11char_traitsIcESaIcEED2Ev
000000000011f6e0 w _ZNSt7__cxx1112basic_stringIcSt11char_traitsIcESaIcEEaSERKS4_
000000000011f6f0 w _ZNSt7__cxx1112basic_stringIcSt11char_traitsIcESaIcEE5beginEv
000000000011f700 w _ZNKSt7__cxx1112basic_stringIcSt11char_traitsIcESaIcEE5beginEv
000000000011f710 w _ZNSt7__cxx1112basic_stringIcSt11char_traitsIcESaIcEE3endEv
000000000011f720 w _ZNKSt7__cxx1112basic_stringIcSt11char_traitsIcESaIcEE3endEv
000000000011f730 w _ZNSt7__cxx1112basic_stringIcSt11char_traitsIcESaIcEE6rbeginEv
000000000011f740 w _ZNKSt7__cxx1112basic_stringIcSt11char_traitsIcESaIcEE6rbeginEv
000000000011f750 w _ZNSt7__cxx1112basic_stringIcSt11char_traitsIcESaIcEE4rendEv
000000000011f760 w _ZNKSt7__cxx1112basic_stringIcSt11char_traitsIcESaIcEE4rendEv
000000000011f770 w _ZNKSt7__cxx1112basic_stringIcSt11char_traitsIcESaIcEE6cbeginEv
000000000011f780 w _ZNKSt7__cxx1112basic_stringIcSt11char_traitsIcESaIcEE4cendEv
000000000011f790 w _ZNKSt7__cxx1112basic_stringIcSt11char_traitsIcESaIcEE7crbeginEv
000000000011f7a0 w _ZNKSt7__cxx1112basic_stringIcSt11char_traitsIcESaIcEE5crendEv
000000000011f7b0 w _ZNKSt7__cxx1112basic_stringIcSt11char_traitsIcESaIcEE4sizeEv
000000000011f7c0 w _ZNKSt7__cxx1112basic_stringIcSt11char_traitsIcESaIcEE6lengthEv
000000000011f7d0 w _ZNKSt7__cxx1112basic_stringIcSt11char_traitsIcESaIcEE8max_sizeEv
000000000011f7e0 w _ZNKSt7__cxx1112basic_stringIcSt11char_traitsIcESaIcEE8capacityEv
000000000011f800 w _ZNSt7__cxx1112basic_stringIcSt11char_traitsIcESaIcEE7reserveEm
000000000011f910 w _ZNSt7__cxx1112basic_stringIcSt11char_traitsIcESaIcEE13shrink_to_fitEv
000000000011f960 w _ZNSt7__cxx1112basic_stringIcSt11char_traitsIcESaIcEE5clearEv
000000000011f970 w _ZNKSt7__cxx1112basic_stringIcSt11char_traitsIcESaIcEE5emptyEv
000000000011f980 w _ZNKSt7__cxx1112basic_stringIcSt11char_traitsIcESaIcEEixEm
000000000011f990 w _ZNSt7__cxx1112basic_stringIcSt11char_traitsIcESaIcEEixEm
000000000011f9a0 w _ZNKSt7__cxx1112basic_stringIcSt11char_traitsIcESaIcEE2atEm
000000000011f9c0 w _ZNSt7__cxx1112basic_stringIcSt11char_traitsIcESaIcEE2atEm
000000000011f9e0 w _ZNSt7__cxx1112basic_stringIcSt11char_traitsIcESaIcEE5frontEv
000000000011f9f0 w _ZNKSt7__cxx1112basic_stringIcSt11char_traitsIcESaIcEE5frontEv
000000000011fa00 w _ZNSt7__cxx1112basic_stringIcSt11char_traitsIcESaIcEE4backEv
000000000011fa10 w _ZNKSt7__cxx1112basic_stringIcSt11char_traitsIcESaIcEE4backEv
000000000011fa20 w _ZNSt7__cxx1112basic_stringIcSt11char_traitsIcESaIcEEpLEc
000000000011fa90 w _ZNSt7__cxx1112basic_stringIcSt11char_traitsIcESaIcEE9push_backEc
000000000011fb00 w _ZNSt7__cxx1112basic_stringIcSt11char_traitsIcESaIcEE6assignERKS4_
000000000011fb10 w _ZNSt7__cxx1112basic_stringIcSt11char_traitsIcESaIcEE5eraseEmm
000000000011fb50 w _ZNSt7__cxx1112basic_stringIcSt11char_traitsIcESaIcEE5eraseEN9__gnu_cxx17__normal_iteratorIPKcS4_EE
000000000011fb80 w _ZNSt7__cxx1112basic_stringIcSt11char_traitsIcESaIcEE5eraseEN9__gnu_cxx17__normal_iteratorIPKcS4_EES9_
000000000011fbb0 w _ZNSt7__cxx1112basic_stringIcSt11char_traitsIcESaIcEE8pop_backEv
000000000011fbd0 w _ZNSt7__cxx1112basic_stringIcSt11char_traitsIcESaIcEE14_M_replace_auxEmmmc
000000000011fce0 w _ZNSt7__cxx1112basic_stringIcSt11char_traitsIcESaIcEE6appendEmc
000000000011fd00 w _ZNSt7__cxx1112basic_stringIcSt11char_traitsIcESaIcEE6resizeEmc
000000000011fd40 w _ZNSt7__cxx1112basic_stringIcSt11char_traitsIcESaIcEE6resizeEm
000000000011fd50 w _ZNSt7__cxx1112basic_stringIcSt11char_traitsIcESaIcEE6assignEmc
000000000011fd70 w _ZNSt7__cxx1112basic_stringIcSt11char_traitsIcESaIcEEaSEc
000000000011fd90 w _ZNSt7__cxx1112basic_stringIcSt11char_traitsIcESaIcEE6insertEmmc
000000000011fdc0 w _ZNSt7__cxx1112basic_stringIcSt11char_traitsIcESaIcEE6insertEN9__gnu_cxx17__normal_iteratorIPKcS4_EEc
000000000011fdf0 w _ZNSt7__cxx1112basic_stringIcSt11char_traitsIcESaIcEE7replaceEmmmc
000000000011fe30 w _ZNSt7__cxx1112basic_stringIcSt11char_traitsIcESaIcEE7replaceEN9__gnu_cxx17__normal_iteratorIPKcS4_EES9_mc
000000000011fe40 w _ZNSt7__cxx1112basic_stringIcSt11char_traitsIcESaIcEE6insertEN9__gnu_cxx17__normal_iteratorIPKcS4_EEmc
000000000011fe70 w _ZNSt7__cxx1112basic_stringIcSt11char_traitsIcESaIcEE10_M_replaceEmmPKcm
0000000000120130 w _ZNSt7__cxx1112basic_stringIcSt11char_traitsIcESaIcEE6assignERKS4_mm
0000000000120180 w _ZNSt7__cxx1112basic_stringIcSt11char_traitsIcESaIcEE6assignEPKcm
00000000001201a0 w _ZNSt7__cxx1112basic_stringIcSt11char_traitsIcESaIcEEaSESt16initializer_listIcE
00000000001201c0 w _ZNSt7__cxx1112basic_stringIcSt11char_traitsIcESaIcEE6assignESt16initializer_listIcE
00000000001201e0 w _ZNSt7__cxx1112basic_stringIcSt11char_traitsIcESaIcEE6assignEPKc
0000000000120210 w _ZNSt7__cxx1112basic_stringIcSt11char_traitsIcESaIcEE7replaceEmmPKcm
0000000000120250 w _ZNSt7__cxx1112basic_stringIcSt11char_traitsIcESaIcEEaSEPKc
0000000000120280 w _ZNSt7__cxx1112basic_stringIcSt11char_traitsIcESaIcEE6insertEmPKcm
00000000001202b0 w _ZNSt7__cxx1112basic_stringIcSt11char_traitsIcESaIcEE7replaceEmmRKS4_
00000000001202f0 w _ZNSt7__cxx1112basic_stringIcSt11char_traitsIcESaIcEE6insertEmRKS4_
0000000000120330 w _ZNSt7__cxx1112basic_stringIcSt11char_traitsIcESaIcEE7replaceEmmPKc
00000000001203a0 w _ZNSt7__cxx1112basic_stringIcSt11char_traitsIcESaIcEE6insertEmPKc
00000000001203f0 w _ZNSt7__cxx1112basic_stringIcSt11char_traitsIcESaIcEE7replaceEN9__gnu_cxx17__normal_iteratorIPKcS4_EES9_S8_m
0000000000120440 w _ZNSt7__cxx1112basic_stringIcSt11char_traitsIcESaIcEE7replaceEN9__gnu_cxx17__normal_iteratorIPKcS4_EES9_PcSA_
0000000000120490 w _ZNSt7__cxx1112basic_stringIcSt11char_traitsIcESaIcEE7replaceEN9__gnu_cxx17__normal_iteratorIPKcS4_EES9_S8_S8_
00000000001204e0 w _ZNSt7__cxx1112basic_stringIcSt11char_traitsIcESaIcEE7replaceEN9__gnu_cxx17__normal_iteratorIPKcS4_EES9_RKS4_
0000000000120530 w _ZNSt7__cxx1112basic_stringIcSt11char_traitsIcESaIcEE7replaceEN9__gnu_cxx17__normal_iteratorIPKcS4_EES9_S8_
00000000001205b0 w _ZNSt7__cxx1112basic_stringIcSt11char_traitsIcESaIcEE7replaceEN9__gnu_cxx17__normal_iteratorIPKcS4_EES9_NS6_IPcS4_EESB_
0000000000120600 w _ZNSt7__cxx1112basic_stringIcSt11char_traitsIcESaIcEE7replaceEN9__gnu_cxx17__normal_iteratorIPKcS4_EES9_S9_S9_
0000000000120650 w _ZNSt7__cxx1112basic_stringIcSt11char_traitsIcESaIcEE6insertEN9__gnu_cxx17__normal_iteratorIPcS4_EESt16initializer_listIcE
0000000000120690 w _ZNSt7__cxx1112basic_stringIcSt11char_traitsIcESaIcEE7replaceEN9__gnu_cxx17__normal_iteratorIPKcS4_EES9_St16initializer_listIcE
00000000001206e0 w _ZNSt7__cxx1112basic_stringIcSt11char_traitsIcESaIcEE7replaceEmmRKS4_mm
0000000000120760 w _ZNSt7__cxx1112basic_stringIcSt11char_traitsIcESaIcEE6insertEmRKS4_mm
00000000001207d0 w _ZNSt7__cxx1112basic_stringIcSt11char_traitsIcESaIcEE9_M_appendEPKcm
0000000000120860 w _ZNSt7__cxx1112basic_stringIcSt11char_traitsIcESaIcEE6appendERKS4_
0000000000120870 w _ZNSt7__cxx1112basic_stringIcSt11char_traitsIcESaIcEEpLERKS4_
0000000000120880 w _ZNSt7__cxx1112basic_stringIcSt11char_traitsIcESaIcEE6appendERKS4_mm
00000000001208c0 w _ZNSt7__cxx1112basic_stringIcSt11char_traitsIcESaIcEE6appendEPKcm
00000000001208f0 w _ZNSt7__cxx1112basic_stringIcSt11char_traitsIcESaIcEE6appendEPKc
0000000000120940 w _ZNSt7__cxx1112basic_stringIcSt11char_traitsIcESaIcEEpLEPKc
0000000000120990 w _ZNSt7__cxx1112basic_stringIcSt11char_traitsIcESaIcEEpLESt16initializer_listIcE
00000000001209c0 w _ZNSt7__cxx1112basic_stringIcSt11char_traitsIcESaIcEE6appendESt16initializer_listIcE
00000000001209f0 w _ZNKSt7__cxx1112basic_stringIcSt11char_traitsIcESaIcEE4copyEPcmm
0000000000120a60 w _ZNSt7__cxx1112basic_stringIcSt11char_traitsIcESaIcEE4swapERS4_
0000000000120bb0 w _ZNSt7__cxx1112basic_stringIcSt11char_traitsIcESaIcEEaSEOS4_
0000000000120bc0 w _ZNSt7__cxx1112basic_stringIcSt11char_traitsIcESaIcEEC2EOS4_RKS3_
0000000000120bd0 w _ZNSt7__cxx1112basic_stringIcSt11char_traitsIcESaIcEE6assignEOS4_
0000000000120be0 w _ZNKSt7__cxx1112basic_stringIcSt11char_traitsIcESaIcEE5c_strEv
0000000000120bf0 w _ZNKSt7__cxx1112basic_stringIcSt11char_traitsIcESaIcEE4dataEv
0000000000120c00 w _ZNKSt7__cxx1112basic_stringIcSt11char_traitsIcESaIcEE13get_allocatorEv
0000000000120c10 w _ZNKSt7__cxx1112basic_stringIcSt11char_traitsIcESaIcEE4findEPKcmm
0000000000120ce0 w _ZNKSt7__cxx1112basic_stringIcSt11char_traitsIcESaIcEE4findERKS4_m
0000000000120cf0 w _ZNKSt7__cxx1112basic_stringIcSt11char_traitsIcESaIcEE4findEPKcm
0000000000120d20 w _ZNKSt7__cxx1112basic_stringIcSt11char_traitsIcESaIcEE4findEcm
0000000000120d70 w _ZNKSt7__cxx1112basic_stringIcSt11char_traitsIcESaIcEE5rfindEPKcmm
0000000000120e00 w _ZNKSt7__cxx1112basic_stringIcSt11char_traitsIcESaIcEE5rfindERKS4_m
0000000000120e10 w _ZNKSt7__cxx1112basic_stringIcSt11char_traitsIcESaIcEE5rfindEPKcm
0000000000120e40 w _ZNKSt7__cxx1112basic_stringIcSt11char_traitsIcESaIcEE5rfindEcm
0000000000120e80 w _ZNKSt7__cxx1112basic_stringIcSt11char_traitsIcESaIcEE13find_first_ofEPKcmm
0000000000120ef0 w _ZNKSt7__cxx1112basic_stringIcSt11char_traitsIcESaIcEE13find_first_ofERKS4_m
0000000000120f00 w _ZNKSt7__cxx1112basic_stringIcSt11char_traitsIcESaIcEE13find_first_ofEPKcm
0000000000120f30 w _ZNKSt7__cxx1112basic_stringIcSt11char_traitsIcESaIcEE13find_first_ofEcm
0000000000120f40 w _ZNKSt7__cxx1112basic_stringIcSt11char_traitsIcESaIcEE12find_last_ofEPKcmm
0000000000120fe0 w _ZNKSt7__cxx1112basic_stringIcSt11char_traitsIcESaIcEE12find_last_ofERKS4_m
0000000000120ff0 w _ZNKSt7__cxx1112basic_stringIcSt11char_traitsIcESaIcEE12find_last_ofEPKcm
0000000000121020 w _ZNKSt7__cxx1112basic_stringIcSt11char_traitsIcESaIcEE12find_last_ofEcm
0000000000121030 w _ZNKSt7__cxx1112basic_stringIcSt11char_traitsIcESaIcEE17find_first_not_ofEPKcmm
00000000001210a0 w _ZNKSt7__cxx1112basic_stringIcSt11char_traitsIcESaIcEE17find_first_not_ofERKS4_m
00000000001210b0 w _ZNKSt7__cxx1112basic_stringIcSt11char_traitsIcESaIcEE17find_first_not_ofEPKcm
00000000001210e0 w _ZNKSt7__cxx1112basic_stringIcSt11char_traitsIcESaIcEE17find_first_not_ofEcm
0000000000121130 w _ZNKSt7__cxx1112basic_stringIcSt11char_traitsIcESaIcEE16find_last_not_ofEPKcmm
00000000001211c0 w _ZNKSt7__cxx1112basic_stringIcSt11char_traitsIcESaIcEE16find_last_not_ofERKS4_m
00000000001211d0 w _ZNKSt7__cxx1112basic_stringIcSt11char_traitsIcESaIcEE16find_last_not_ofEPKcm
0000000000121200 w _ZNKSt7__cxx1112basic_stringIcSt11char_traitsIcESaIcEE16find_last_not_ofEcm
0000000000121250 w _ZNKSt7__cxx1112basic_stringIcSt11char_traitsIcESaIcEE7compareERKS4_
00000000001212b0 w _ZNKSt7__cxx1112basic_stringIcSt11char_traitsIcESaIcEE7compareEmmRKS4_
0000000000121350 w _ZNKSt7__cxx1112basic_stringIcSt11char_traitsIcESaIcEE7compareEmmRKS4_mm
0000000000121420 w _ZNKSt7__cxx1112basic_stringIcSt11char_traitsIcESaIcEE7compareEPKc
00000000001214a0 w _ZNKSt7__cxx1112basic_stringIcSt11char_traitsIcESaIcEE7compareEmmPKc
0000000000121550 w _ZNKSt7__cxx1112basic_stringIcSt11char_traitsIcESaIcEE7compareEmmPKcm
00000000001215f0 w _ZNSt7__cxx1112basic_stringIcSt11char_traitsIcESaIcEE12_Alloc_hiderC1EPcRKS3_
0000000000121600 w _ZStplIcSt11char_traitsIcESaIcEENSt7__cxx1112basic_stringIT_T0_T1_EEPKS5_RKS8_
00000000001216b0 w _ZStplIcSt11char_traitsIcESaIcEENSt7__cxx1112basic_stringIT_T0_T1_EES5_RKS8_
0000000000121730 w _ZNSt7__cxx1112basic_stringIcSt11char_traitsIcESaIcEE12_M_constructIN9__gnu_cxx17__normal_iteratorIPcS4_EEEEvT_SA_St20forward_iterator_tag
00000000001217e0 w _ZNSt7__cxx1112basic_stringIcSt11char_traitsIcESaIcEEC1IN9__gnu_cxx17__normal_iteratorIPcS4_EEvEET_SA_RKS3_
0000000000121800 w _ZNSt7__cxx1112basic_stringIcSt11char_traitsIcESaIcEE12_M_constructIN9__gnu_cxx17__normal_iteratorIPKcS4_EEEEvT_SB_St20forward_iterator_tag
00000000001218b0 w _ZNSt7__cxx1112basic_stringIcSt11char_traitsIcESaIcEEC2ERKS4_RKS3_
00000000001218e0 w _ZNSt7__cxx1112basic_stringIcSt11char_traitsIcESaIcEE12_M_constructIPcEEvT_S7_St20forward_iterator_tag
00000000001219b0 w _ZNSt7__cxx1112basic_stringIcSt11char_traitsIcESaIcEEC1ERKS4_
00000000001219e0 w _ZNSt7__cxx1112basic_stringIcSt11char_traitsIcESaIcEEC2IPcvEET_S7_RKS3_
0000000000121a00 w _ZStplIcSt11char_traitsIcESaIcEENSt7__cxx1112basic_stringIT_T0_T1_EERKS8_SA_
0000000000121a60 w _ZNSt7__cxx1112basic_stringIcSt11char_traitsIcESaIcEE12_M_constructIPKcEEvT_S8_St20forward_iterator_tag
0000000000121b30 w _ZNSt7__cxx1112basic_stringIcSt11char_traitsIcESaIcEEC2ERKS4_mm
0000000000121b90 w _ZNSt7__cxx1112basic_stringIcSt11char_traitsIcESaIcEEC2ERKS4_mmRKS3_
0000000000121bf0 w _ZNSt7__cxx1112basic_stringIcSt11char_traitsIcESaIcEEC2EPKcmRKS3_
0000000000121c10 w _ZNSt7__cxx1112basic_stringIcSt11char_traitsIcESaIcEEC1EPKcRKS3_
0000000000121c60 w _ZNSt7__cxx1112basic_stringIcSt11char_traitsIcESaIcEEC2ESt16initializer_listIcERKS3_
0000000000121c80 w _ZNSt7__cxx1112basic_stringIcSt11char_traitsIcESaIcEEC1IPKcvEET_S8_RKS3_
0000000000121ca0 w _ZNKSt7__cxx1112basic_stringIcSt11char_traitsIcESaIcEE6substrEmm
0000000000121d00 w _ZNKSt10moneypunctIwLb0EE16do_decimal_pointEv
0000000000121d10 w _ZNKSt10moneypunctIwLb0EE16do_thousands_sepEv
0000000000121d20 w _ZNKSt10moneypunctIwLb0EE14do_frac_digitsEv
0000000000121d30 w _ZNKSt10moneypunctIwLb0EE13do_pos_formatEv
0000000000121d70 w _ZNKSt10moneypunctIwLb0EE13do_neg_formatEv
0000000000121db0 w _ZNKSt10moneypunctIwLb1EE16do_decimal_pointEv
0000000000121dc0 w _ZNKSt10moneypunctIwLb1EE16do_thousands_sepEv
0000000000121dd0 w _ZNKSt10moneypunctIwLb1EE14do_frac_digitsEv
0000000000121de0 w _ZNKSt10moneypunctIwLb1EE13do_pos_formatEv
0000000000121e20 w _ZNKSt10moneypunctIwLb1EE13do_neg_formatEv
0000000000121e60 w _ZNSt17moneypunct_bynameIwLb0EED1Ev
0000000000121e80 w _ZNSt17moneypunct_bynameIwLb1EED2Ev
0000000000121ea0 w _ZNKSt8numpunctIwE16do_decimal_pointEv
0000000000121eb0 w _ZNKSt8numpunctIwE16do_thousands_sepEv
0000000000121ec0 w _ZNSt15numpunct_bynameIwED1Ev
0000000000121ee0 w _ZNKSt8time_getIwSt19istreambuf_iteratorIwSt11char_traitsIwEEE13do_date_orderEv
0000000000121ef0 w _ZNKSt7collateIwE7do_hashEPKwS2_
0000000000121f20 w _ZNSt9money_getIwSt19istreambuf_iteratorIwSt11char_traitsIwEEED2Ev
0000000000121f40 w _ZNSt9money_putIwSt19ostreambuf_iteratorIwSt11char_traitsIwEEED1Ev
0000000000121f60 w _ZNSt7num_getIwSt19istreambuf_iteratorIwSt11char_traitsIwEEED2Ev
0000000000121f80 w _ZNSt7num_putIwSt19ostreambuf_iteratorIwSt11char_traitsIwEEED1Ev
0000000000121fa0 w _ZNSt17__timepunct_cacheIwED2Ev
0000000000121fc0 w _ZNSt8time_putIwSt19ostreambuf_iteratorIwSt11char_traitsIwEEED1Ev
0000000000121fe0 w _ZNSt15time_put_bynameIwSt19ostreambuf_iteratorIwSt11char_traitsIwEEED1Ev
0000000000122000 w _ZNSt8time_getIwSt19istreambuf_iteratorIwSt11char_traitsIwEEED2Ev
0000000000122020 w _ZNSt15time_get_bynameIwSt19istreambuf_iteratorIwSt11char_traitsIwEEED2Ev
0000000000122040 w _ZNSt17moneypunct_bynameIwLb0EED0Ev
0000000000122060 w _ZNSt17moneypunct_bynameIwLb1EED0Ev
0000000000122080 w _ZNSt9money_getIwSt19istreambuf_iteratorIwSt11char_traitsIwEEED0Ev
00000000001220a0 w _ZNSt9money_putIwSt19ostreambuf_iteratorIwSt11char_traitsIwEEED0Ev
00000000001220c0 w _ZNSt15numpunct_bynameIwED0Ev
00000000001220e0 w _ZNSt7num_getIwSt19istreambuf_iteratorIwSt11char_traitsIwEEED0Ev
0000000000122100 w _ZNSt7num_putIwSt19ostreambuf_iteratorIwSt11char_traitsIwEEED0Ev
0000000000122120 w _ZNSt17__timepunct_cacheIwED0Ev
0000000000122140 w _ZNSt8time_putIwSt19ostreambuf_iteratorIwSt11char_traitsIwEEED0Ev
0000000000122160 w _ZNSt15time_put_bynameIwSt19ostreambuf_iteratorIwSt11char_traitsIwEEED0Ev
0000000000122180 w _ZNSt8time_getIwSt19istreambuf_iteratorIwSt11char_traitsIwEEED0Ev
00000000001221a0 w _ZNSt15time_get_bynameIwSt19istreambuf_iteratorIwSt11char_traitsIwEEED0Ev
00000000001221c0 w _ZNKSt10moneypunctIwLb0EE11do_groupingEv
0000000000122210 w _ZNKSt10moneypunctIwLb1EE11do_groupingEv
0000000000122260 w _ZNKSt8numpunctIwE11do_groupingEv
00000000001222b0 w _ZNKSt10moneypunctIwLb0EE14do_curr_symbolEv
0000000000122300 w _ZNKSt10moneypunctIwLb0EE16do_positive_signEv
0000000000122350 w _ZNKSt10moneypunctIwLb0EE16do_negative_signEv
00000000001223a0 w _ZNKSt10moneypunctIwLb1EE14do_curr_symbolEv
00000000001223f0 w _ZNKSt10moneypunctIwLb1EE16do_positive_signEv
0000000000122440 w _ZNKSt10moneypunctIwLb1EE16do_negative_signEv
0000000000122490 w _ZNKSt8numpunctIwE11do_truenameEv
00000000001224e0 w _ZNKSt8numpunctIwE12do_falsenameEv
0000000000122530 w _ZNSt7collateIwED2Ev
0000000000122560 w _ZNSt7collateIwED0Ev
0000000000122590 w _ZNSt14collate_bynameIwED2Ev
00000000001225c0 w _ZNSt14collate_bynameIwED0Ev
00000000001225f0 w _ZNSt11__timepunctIwED1Ev
0000000000122650 w _ZNSt11__timepunctIwED0Ev
0000000000122670 w _ZNSt8messagesIwED1Ev
00000000001226c0 w _ZNSt8messagesIwED0Ev
00000000001226e0 w _ZNSt15messages_bynameIwED2Ev
0000000000122700 w _ZNSt15messages_bynameIwED0Ev
0000000000122720 w _ZNSt14codecvt_bynameIwc11__mbstate_tED2Ev
0000000000122740 w _ZNSt14codecvt_bynameIwc11__mbstate_tED0Ev
0000000000122800 w _ZNKSt7collateIwE10do_compareEPKwS2_S2_S2_
0000000000122970 w _ZNKSt7collateIwE12do_transformEPKwS2_
0000000000122bd0 w _ZNSt18__moneypunct_cacheIwLb0EEC1Em
0000000000122c70 w _ZNSt18__moneypunct_cacheIwLb1EEC2Em
0000000000122d10 w _ZNSt10moneypunctIwLb0EEC2Em
0000000000122d60 w _ZNSt10moneypunctIwLb0EEC2EPSt18__moneypunct_cacheIwLb0EEm
0000000000122db0 w _ZNSt10moneypunctIwLb0EEC1EP15__locale_structPKcm
0000000000122e00 w _ZNKSt10moneypunctIwLb0EE13decimal_pointEv
0000000000122e30 w _ZNKSt10moneypunctIwLb0EE13thousands_sepEv
0000000000122e60 w _ZNKSt10moneypunctIwLb0EE8groupingEv
0000000000122ed0 w _ZNKSt10moneypunctIwLb0EE11curr_symbolEv
0000000000122f40 w _ZNKSt10moneypunctIwLb0EE13positive_signEv
0000000000122fb0 w _ZNKSt10moneypunctIwLb0EE13negative_signEv
0000000000123020 w _ZNKSt10moneypunctIwLb0EE11frac_digitsEv
0000000000123050 w _ZNKSt10moneypunctIwLb0EE10pos_formatEv
00000000001230a0 w _ZNKSt10moneypunctIwLb0EE10neg_formatEv
00000000001230f0 w _ZNSt10moneypunctIwLb1EEC1Em
0000000000123140 w _ZNSt10moneypunctIwLb1EEC1EPSt18__moneypunct_cacheIwLb1EEm
0000000000123190 w _ZNSt10moneypunctIwLb1EEC2EP15__locale_structPKcm
00000000001231e0 w _ZNKSt10moneypunctIwLb1EE13decimal_pointEv
0000000000123210 w _ZNKSt10moneypunctIwLb1EE13thousands_sepEv
0000000000123240 w _ZNKSt10moneypunctIwLb1EE8groupingEv
00000000001232b0 w _ZNKSt10moneypunctIwLb1EE11curr_symbolEv
0000000000123320 w _ZNKSt10moneypunctIwLb1EE13positive_signEv
0000000000123390 w _ZNKSt10moneypunctIwLb1EE13negative_signEv
0000000000123400 w _ZNKSt10moneypunctIwLb1EE11frac_digitsEv
0000000000123430 w _ZNKSt10moneypunctIwLb1EE10pos_formatEv
0000000000123480 w _ZNKSt10moneypunctIwLb1EE10neg_formatEv
00000000001234d0 w _ZNSt17moneypunct_bynameIwLb0EEC1EPKcm
00000000001235c0 w _ZNSt17moneypunct_bynameIwLb0EEC2ERKSsm
00000000001236b0 w _ZNSt17moneypunct_bynameIwLb1EEC1EPKcm
00000000001237a0 w _ZNSt17moneypunct_bynameIwLb1EEC2ERKSsm
0000000000123890 w _ZNSt9money_getIwSt19istreambuf_iteratorIwSt11char_traitsIwEEEC1Em
00000000001238b0 w _ZNKSt9money_getIwSt19istreambuf_iteratorIwSt11char_traitsIwEEE3getES3_S3_bRSt8ios_baseRSt12_Ios_IostateRe
00000000001238d0 w _ZNKSt9money_getIwSt19istreambuf_iteratorIwSt11char_traitsIwEEE3getES3_S3_bRSt8ios_baseRSt12_Ios_IostateRSbIwS2_SaIwEE
00000000001238f0 w _ZNSt9money_putIwSt19ostreambuf_iteratorIwSt11char_traitsIwEEEC2Em
0000000000123910 w _ZNKSt9money_putIwSt19ostreambuf_iteratorIwSt11char_traitsIwEEE3putES3_bRSt8ios_basewe
0000000000123930 w _ZNKSt9money_putIwSt19ostreambuf_iteratorIwSt11char_traitsIwEEE3putES3_bRSt8ios_basewRKSbIwS2_SaIwEE
0000000000123950 w _ZNSt16__numpunct_cacheIwEC1Em
00000000001239c0 w _ZNSt8numpunctIwEC2Em
0000000000123a10 w _ZNSt8numpunctIwEC2EPSt16__numpunct_cacheIwEm
0000000000123a60 w _ZNSt8numpunctIwEC1EP15__locale_structm
0000000000123ab0 w _ZNKSt8numpunctIwE13decimal_pointEv
0000000000123ae0 w _ZNKSt8numpunctIwE13thousands_sepEv
0000000000123b10 w _ZNKSt8numpunctIwE8groupingEv
0000000000123b80 w _ZNKSt8numpunctIwE8truenameEv
0000000000123bf0 w _ZNKSt8numpunctIwE9falsenameEv
0000000000123c60 w _ZNSt15numpunct_bynameIwEC1EPKcm
0000000000123d50 w _ZNSt15numpunct_bynameIwEC2ERKSsm
0000000000123e40 w _ZNSt7num_getIwSt19istreambuf_iteratorIwSt11char_traitsIwEEEC2Em
0000000000123e60 w _ZNKSt7num_getIwSt19istreambuf_iteratorIwSt11char_traitsIwEEE3getES3_S3_RSt8ios_baseRSt12_Ios_IostateRb
0000000000123e80 w _ZNKSt7num_getIwSt19istreambuf_iteratorIwSt11char_traitsIwEEE3getES3_S3_RSt8ios_baseRSt12_Ios_IostateRf
0000000000123ea0 w _ZNKSt7num_getIwSt19istreambuf_iteratorIwSt11char_traitsIwEEE3getES3_S3_RSt8ios_baseRSt12_Ios_IostateRd
0000000000123ec0 w _ZNKSt7num_getIwSt19istreambuf_iteratorIwSt11char_traitsIwEEE3getES3_S3_RSt8ios_baseRSt12_Ios_IostateRe
0000000000123ee0 w _ZNKSt7num_getIwSt19istreambuf_iteratorIwSt11char_traitsIwEEE3getES3_S3_RSt8ios_baseRSt12_Ios_IostateRPv
0000000000123f00 w _ZNSt7num_putIwSt19ostreambuf_iteratorIwSt11char_traitsIwEEEC1Em
0000000000123f20 w _ZNKSt7num_putIwSt19ostreambuf_iteratorIwSt11char_traitsIwEEE3putES3_RSt8ios_basewb
0000000000123f40 w _ZNKSt7num_putIwSt19ostreambuf_iteratorIwSt11char_traitsIwEEE3putES3_RSt8ios_basewd
0000000000123f50 w _ZNKSt7num_putIwSt19ostreambuf_iteratorIwSt11char_traitsIwEEE3putES3_RSt8ios_basewe
0000000000123f70 w _ZNKSt7num_putIwSt19ostreambuf_iteratorIwSt11char_traitsIwEEE3putES3_RSt8ios_basewPKv
0000000000123f80 w _ZNSt11__timepunctIwEC2Em
0000000000123fe0 w _ZNSt11__timepunctIwEC1EPSt17__timepunct_cacheIwEm
0000000000124040 w _ZNSt11__timepunctIwEC1EP15__locale_structPKcm
0000000000124130 w _ZNKSt11__timepunctIwE15_M_date_formatsEPPKw
0000000000124150 w _ZNKSt11__timepunctIwE15_M_time_formatsEPPKw
0000000000124170 w _ZNKSt11__timepunctIwE20_M_date_time_formatsEPPKw
0000000000124190 w _ZNKSt11__timepunctIwE15_M_am_pm_formatEPKw
00000000001241a0 w _ZNKSt11__timepunctIwE8_M_am_pmEPPKw
00000000001241c0 w _ZNKSt11__timepunctIwE7_M_daysEPPKw
0000000000124220 w _ZNKSt11__timepunctIwE19_M_days_abbreviatedEPPKw
0000000000124290 w _ZNKSt11__timepunctIwE9_M_monthsEPPKw
0000000000124350 w _ZNKSt11__timepunctIwE21_M_months_abbreviatedEPPKw
0000000000124410 w _ZNSt17__timepunct_cacheIwEC1Em
0000000000124610 w _ZNSt8time_putIwSt19ostreambuf_iteratorIwSt11char_traitsIwEEEC2Em
0000000000124630 w _ZNKSt8time_putIwSt19ostreambuf_iteratorIwSt11char_traitsIwEEE3putES3_RSt8ios_basewPK2tmcc
0000000000124650 w _ZNSt15time_put_bynameIwSt19ostreambuf_iteratorIwSt11char_traitsIwEEEC1EPKcm
0000000000124670 w _ZNSt15time_put_bynameIwSt19ostreambuf_iteratorIwSt11char_traitsIwEEEC2ERKSsm
0000000000124690 w _ZNSt8time_getIwSt19istreambuf_iteratorIwSt11char_traitsIwEEEC1Em
00000000001246b0 w _ZNKSt8time_getIwSt19istreambuf_iteratorIwSt11char_traitsIwEEE10date_orderEv
00000000001246c0 w _ZNKSt8time_getIwSt19istreambuf_iteratorIwSt11char_traitsIwEEE8get_timeES3_S3_RSt8ios_baseRSt12_Ios_IostateP2tm
00000000001246e0 w _ZNKSt8time_getIwSt19istreambuf_iteratorIwSt11char_traitsIwEEE8get_dateES3_S3_RSt8ios_baseRSt12_Ios_IostateP2tm
0000000000124700 w _ZNKSt8time_getIwSt19istreambuf_iteratorIwSt11char_traitsIwEEE11get_weekdayES3_S3_RSt8ios_baseRSt12_Ios_IostateP2tm
0000000000124720 w _ZNKSt8time_getIwSt19istreambuf_iteratorIwSt11char_traitsIwEEE13get_monthnameES3_S3_RSt8ios_baseRSt12_Ios_IostateP2tm
0000000000124740 w _ZNKSt8time_getIwSt19istreambuf_iteratorIwSt11char_traitsIwEEE8get_yearES3_S3_RSt8ios_baseRSt12_Ios_IostateP2tm
0000000000124760 w _ZNSt15time_get_bynameIwSt19istreambuf_iteratorIwSt11char_traitsIwEEEC1EPKcm
0000000000124780 w _ZNSt15time_get_bynameIwSt19istreambuf_iteratorIwSt11char_traitsIwEEEC1ERKSsm
00000000001247a0 w _ZNSt8messagesIwEC2Em
00000000001247f0 w _ZNSt8messagesIwEC1EP15__locale_structPKcm
00000000001248a0 w _ZNKSt8messagesIwE4openERKSsRKSt6locale
00000000001248b0 w _ZNKSt8messagesIwE4openERKSsRKSt6localePKc
00000000001248e0 w _ZNKSt8messagesIwE3getEiiiRKSbIwSt11char_traitsIwESaIwEE
0000000000124920 w _ZNKSt8messagesIwE5closeEi
0000000000124930 w _ZNKSt8messagesIwE18_M_convert_to_charERKSbIwSt11char_traitsIwESaIwEE
0000000000124940 w _ZNKSt8messagesIwE20_M_convert_from_charEPc
0000000000124960 w _ZNSt15messages_bynameIwEC1EPKcm
0000000000124a60 w _ZNSt15messages_bynameIwEC1ERKSsm
0000000000124a70 T _ZNSt12ctype_bynameIwEC1ERKSsm
0000000000124a80 w _ZNSt14codecvt_bynameIwc11__mbstate_tEC1EPKcm
0000000000124b10 w _ZNSt14codecvt_bynameIwc11__mbstate_tEC1ERKSsm
0000000000124ba0 w _ZNSt7collateIwEC1Em
0000000000124bf0 w _ZNSt7collateIwEC1EP15__locale_structm
0000000000124c30 w _ZNKSt7collateIwE7compareEPKwS2_S2_S2_
0000000000124c40 w _ZNKSt7collateIwE9transformEPKwS2_
0000000000124c80 w _ZNKSt7collateIwE4hashEPKwS2_
0000000000124c90 w _ZNSt14collate_bynameIwEC1EPKcm
0000000000124d60 w _ZSt9use_facetISt5ctypeIwEERKT_RKSt6locale
0000000000124db0 w _ZNKSt8time_putIwSt19ostreambuf_iteratorIwSt11char_traitsIwEEE3putES3_RSt8ios_basewPK2tmPKwSB_
0000000000124f30 w _ZNKSt8time_getIwSt19istreambuf_iteratorIwSt11char_traitsIwEEE14_M_extract_numES3_S3_RiiimRSt8ios_baseRSt12_Ios_Iostate
0000000000125230 w _ZSt9use_facetISt7codecvtIwc11__mbstate_tEERKT_RKSt6locale
0000000000125280 w _ZSt9use_facetISt7collateIwEERKT_RKSt6locale
00000000001252d0 w _ZSt9use_facetISt8numpunctIwEERKT_RKSt6locale
0000000000125320 w _ZNSt16__numpunct_cacheIwE8_M_cacheERKSt6locale
0000000000125770 w _ZSt9use_facetISt7num_putIwSt19ostreambuf_iteratorIwSt11char_traitsIwEEEERKT_RKSt6locale
00000000001257c0 w _ZSt9use_facetISt7num_getIwSt19istreambuf_iteratorIwSt11char_traitsIwEEEERKT_RKSt6locale
0000000000125810 w _ZSt9use_facetISt10moneypunctIwLb1EEERKT_RKSt6locale
0000000000125860 w _ZNSt18__moneypunct_cacheIwLb1EE8_M_cacheERKSt6locale
0000000000125e30 w _ZSt9use_facetISt10moneypunctIwLb0EEERKT_RKSt6locale
0000000000125e80 w _ZNSt18__moneypunct_cacheIwLb0EE8_M_cacheERKSt6locale
0000000000126450 w _ZSt9use_facetISt9money_putIwSt19ostreambuf_iteratorIwSt11char_traitsIwEEEERKT_RKSt6locale
00000000001264a0 w _ZSt9use_facetISt9money_getIwSt19istreambuf_iteratorIwSt11char_traitsIwEEEERKT_RKSt6locale
00000000001264f0 w _ZSt9use_facetISt11__timepunctIwEERKT_RKSt6locale
0000000000126540 w _ZNKSt8time_putIwSt19ostreambuf_iteratorIwSt11char_traitsIwEEE6do_putES3_RSt8ios_basewPK2tmcc
0000000000126670 w _ZSt9use_facetISt8time_putIwSt19ostreambuf_iteratorIwSt11char_traitsIwEEEERKT_RKSt6locale
00000000001266c0 w _ZSt9use_facetISt8time_getIwSt19istreambuf_iteratorIwSt11char_traitsIwEEEERKT_RKSt6locale
0000000000126710 w _ZSt9use_facetISt8messagesIwEERKT_RKSt6locale
0000000000126760 w _ZSt9has_facetISt5ctypeIwEEbRKSt6locale
00000000001267b0 w _ZSt9has_facetISt7codecvtIwc11__mbstate_tEEbRKSt6locale
0000000000126800 w _ZSt9has_facetISt7collateIwEEbRKSt6locale
0000000000126850 w _ZSt9has_facetISt8numpunctIwEEbRKSt6locale
00000000001268a0 w _ZSt9has_facetISt7num_putIwSt19ostreambuf_iteratorIwSt11char_traitsIwEEEEbRKSt6locale
00000000001268f0 w _ZSt9has_facetISt7num_getIwSt19istreambuf_iteratorIwSt11char_traitsIwEEEEbRKSt6locale
0000000000126940 w _ZSt9has_facetISt10moneypunctIwLb0EEEbRKSt6locale
0000000000126990 w _ZSt9has_facetISt9money_putIwSt19ostreambuf_iteratorIwSt11char_traitsIwEEEEbRKSt6locale
00000000001269e0 w _ZSt9has_facetISt9money_getIwSt19istreambuf_iteratorIwSt11char_traitsIwEEEEbRKSt6locale
0000000000126a30 w _ZSt9has_facetISt11__timepunctIwEEbRKSt6locale
0000000000126a80 w _ZSt9has_facetISt8time_putIwSt19ostreambuf_iteratorIwSt11char_traitsIwEEEEbRKSt6locale
0000000000126ad0 w _ZSt9has_facetISt8time_getIwSt19istreambuf_iteratorIwSt11char_traitsIwEEEEbRKSt6locale
0000000000126b20 w _ZSt9has_facetISt8messagesIwEEbRKSt6locale
0000000000126cf0 w _ZNKSt7num_putIwSt19ostreambuf_iteratorIwSt11char_traitsIwEEE14_M_group_floatEPKcmwPKwPwS9_Ri
0000000000126db0 w _ZNKSt7num_putIwSt19ostreambuf_iteratorIwSt11char_traitsIwEEE12_M_group_intEPKcmwRSt8ios_basePwS9_Ri
0000000000126fd0 w _ZNKSt7num_putIwSt19ostreambuf_iteratorIwSt11char_traitsIwEEE6_M_padEwlRSt8ios_basePwPKwRi
00000000001272c0 w _ZNKSt9money_putIwSt19ostreambuf_iteratorIwSt11char_traitsIwEEE9_M_insertILb1EEES3_S3_RSt8ios_basewRKSbIwS2_SaIwEE
00000000001279a0 w _ZNKSt9money_putIwSt19ostreambuf_iteratorIwSt11char_traitsIwEEE9_M_insertILb0EEES3_S3_RSt8ios_basewRKSbIwS2_SaIwEE
0000000000127f40 w _ZNKSt9money_putIwSt19ostreambuf_iteratorIwSt11char_traitsIwEEE6do_putES3_bRSt8ios_basewe
0000000000128150 w _ZNKSt9money_putIwSt19ostreambuf_iteratorIwSt11char_traitsIwEEE6do_putES3_bRSt8ios_basewRKSbIwS2_SaIwEE
0000000000128180 w _ZNKSt7num_putIwSt19ostreambuf_iteratorIwSt11char_traitsIwEEE13_M_insert_intIlEES3_S3_RSt8ios_basewT_
0000000000128430 w _ZNKSt7num_putIwSt19ostreambuf_iteratorIwSt11char_traitsIwEEE6do_putES3_RSt8ios_basewl
0000000000128440 w _ZNKSt7num_putIwSt19ostreambuf_iteratorIwSt11char_traitsIwEEE3putES3_RSt8ios_basewl
0000000000128470 w _ZNKSt7num_putIwSt19ostreambuf_iteratorIwSt11char_traitsIwEEE6do_putES3_RSt8ios_basewb
0000000000128660 w _ZNKSt7num_putIwSt19ostreambuf_iteratorIwSt11char_traitsIwEEE13_M_insert_intImEES3_S3_RSt8ios_basewT_
00000000001288b0 w _ZNKSt7num_putIwSt19ostreambuf_iteratorIwSt11char_traitsIwEEE6do_putES3_RSt8ios_basewm
00000000001288c0 w _ZNKSt7num_putIwSt19ostreambuf_iteratorIwSt11char_traitsIwEEE6do_putES3_RSt8ios_basewPKv
0000000000128910 w _ZNKSt7num_putIwSt19ostreambuf_iteratorIwSt11char_traitsIwEEE3putES3_RSt8ios_basewm
0000000000128940 w _ZNKSt7num_putIwSt19ostreambuf_iteratorIwSt11char_traitsIwEEE13_M_insert_intIxEES3_S3_RSt8ios_basewT_
0000000000128bf0 w _ZNKSt7num_putIwSt19ostreambuf_iteratorIwSt11char_traitsIwEEE6do_putES3_RSt8ios_basewx
0000000000128c00 w _ZNKSt7num_putIwSt19ostreambuf_iteratorIwSt11char_traitsIwEEE3putES3_RSt8ios_basewx
0000000000128c30 w _ZNKSt7num_putIwSt19ostreambuf_iteratorIwSt11char_traitsIwEEE13_M_insert_intIyEES3_S3_RSt8ios_basewT_
0000000000128e80 w _ZNKSt7num_putIwSt19ostreambuf_iteratorIwSt11char_traitsIwEEE6do_putES3_RSt8ios_basewy
0000000000128e90 w _ZNKSt7num_putIwSt19ostreambuf_iteratorIwSt11char_traitsIwEEE3putES3_RSt8ios_basewy
0000000000128ec0 w _ZNKSt7num_putIwSt19ostreambuf_iteratorIwSt11char_traitsIwEEE15_M_insert_floatIdEES3_S3_RSt8ios_basewcT_
00000000001292b0 w _ZNKSt7num_putIwSt19ostreambuf_iteratorIwSt11char_traitsIwEEE6do_putES3_RSt8ios_basewd
00000000001292d0 w _ZNKSt7num_putIwSt19ostreambuf_iteratorIwSt11char_traitsIwEEE15_M_insert_floatIeEES3_S3_RSt8ios_basewcT_
00000000001296c0 w _ZNKSt7num_putIwSt19ostreambuf_iteratorIwSt11char_traitsIwEEE6do_putES3_RSt8ios_basewe
00000000001296e0 w _ZNKSt8time_getIwSt19istreambuf_iteratorIwSt11char_traitsIwEEE24_M_extract_wday_or_monthES3_S3_RiPPKwmRSt8ios_baseRSt12_Ios_Iostate
0000000000129b20 w _ZNKSt8time_getIwSt19istreambuf_iteratorIwSt11char_traitsIwEEE14do_get_weekdayES3_S3_RSt8ios_baseRSt12_Ios_IostateP2tm
0000000000129d20 w _ZNKSt7num_getIwSt19istreambuf_iteratorIwSt11char_traitsIwEEE14_M_extract_intIlEES3_S3_S3_RSt8ios_baseRSt12_Ios_IostateRT_
000000000012a6e0 w _ZNKSt7num_getIwSt19istreambuf_iteratorIwSt11char_traitsIwEEE6do_getES3_S3_RSt8ios_baseRSt12_Ios_IostateRb
000000000012ab40 w _ZNKSt7num_getIwSt19istreambuf_iteratorIwSt11char_traitsIwEEE6do_getES3_S3_RSt8ios_baseRSt12_Ios_IostateRl
000000000012ab60 w _ZNKSt7num_getIwSt19istreambuf_iteratorIwSt11char_traitsIwEEE3getES3_S3_RSt8ios_baseRSt12_Ios_IostateRl
000000000012aba0 w _ZNKSt7num_getIwSt19istreambuf_iteratorIwSt11char_traitsIwEEE14_M_extract_intItEES3_S3_S3_RSt8ios_baseRSt12_Ios_IostateRT_
000000000012b4d0 w _ZNKSt7num_getIwSt19istreambuf_iteratorIwSt11char_traitsIwEEE6do_getES3_S3_RSt8ios_baseRSt12_Ios_IostateRt
000000000012b4f0 w _ZNKSt7num_getIwSt19istreambuf_iteratorIwSt11char_traitsIwEEE3getES3_S3_RSt8ios_baseRSt12_Ios_IostateRt
000000000012b530 w _ZNKSt7num_getIwSt19istreambuf_iteratorIwSt11char_traitsIwEEE14_M_extract_intIjEES3_S3_S3_RSt8ios_baseRSt12_Ios_IostateRT_
000000000012be70 w _ZNKSt7num_getIwSt19istreambuf_iteratorIwSt11char_traitsIwEEE6do_getES3_S3_RSt8ios_baseRSt12_Ios_IostateRj
000000000012be90 w _ZNKSt7num_getIwSt19istreambuf_iteratorIwSt11char_traitsIwEEE3getES3_S3_RSt8ios_baseRSt12_Ios_IostateRj
000000000012bed0 w _ZNKSt7num_getIwSt19istreambuf_iteratorIwSt11char_traitsIwEEE14_M_extract_intImEES3_S3_S3_RSt8ios_baseRSt12_Ios_IostateRT_
000000000012c830 w _ZNKSt7num_getIwSt19istreambuf_iteratorIwSt11char_traitsIwEEE6do_getES3_S3_RSt8ios_baseRSt12_Ios_IostateRm
000000000012c850 w _ZNKSt7num_getIwSt19istreambuf_iteratorIwSt11char_traitsIwEEE6do_getES3_S3_RSt8ios_baseRSt12_Ios_IostateRPv
000000000012c8e0 w _ZNKSt7num_getIwSt19istreambuf_iteratorIwSt11char_traitsIwEEE3getES3_S3_RSt8ios_baseRSt12_Ios_IostateRm
000000000012c920 w _ZNKSt7num_getIwSt19istreambuf_iteratorIwSt11char_traitsIwEEE14_M_extract_intIxEES3_S3_S3_RSt8ios_baseRSt12_Ios_IostateRT_
000000000012d2e0 w _ZNKSt7num_getIwSt19istreambuf_iteratorIwSt11char_traitsIwEEE6do_getES3_S3_RSt8ios_baseRSt12_Ios_IostateRx
000000000012d300 w _ZNKSt7num_getIwSt19istreambuf_iteratorIwSt11char_traitsIwEEE3getES3_S3_RSt8ios_baseRSt12_Ios_IostateRx
000000000012d340 w _ZNKSt7num_getIwSt19istreambuf_iteratorIwSt11char_traitsIwEEE14_M_extract_intIyEES3_S3_S3_RSt8ios_baseRSt12_Ios_IostateRT_
000000000012dca0 w _ZNKSt7num_getIwSt19istreambuf_iteratorIwSt11char_traitsIwEEE6do_getES3_S3_RSt8ios_baseRSt12_Ios_IostateRy
000000000012dcc0 w _ZNKSt7num_getIwSt19istreambuf_iteratorIwSt11char_traitsIwEEE3getES3_S3_RSt8ios_baseRSt12_Ios_IostateRy
000000000012dd00 w _ZNKSt7num_getIwSt19istreambuf_iteratorIwSt11char_traitsIwEEE16_M_extract_floatES3_S3_RSt8ios_baseRSt12_Ios_IostateRSs
000000000012e6d0 w _ZNKSt8time_getIwSt19istreambuf_iteratorIwSt11char_traitsIwEEE15_M_extract_nameES3_S3_RiPPKwmRSt8ios_baseRSt12_Ios_Iostate
000000000012ea10 w _ZNKSt8time_getIwSt19istreambuf_iteratorIwSt11char_traitsIwEEE21_M_extract_via_formatES3_S3_RSt8ios_baseRSt12_Ios_IostateP2tmPKw
000000000012f930 w _ZNKSt8time_getIwSt19istreambuf_iteratorIwSt11char_traitsIwEEE11do_get_timeES3_S3_RSt8ios_baseRSt12_Ios_IostateP2tm
000000000012f9f0 w _ZNKSt8time_getIwSt19istreambuf_iteratorIwSt11char_traitsIwEEE11do_get_dateES3_S3_RSt8ios_baseRSt12_Ios_IostateP2tm
000000000012fab0 w _ZNKSt8time_getIwSt19istreambuf_iteratorIwSt11char_traitsIwEEE3getES3_S3_RSt8ios_baseRSt12_Ios_IostateP2tmPKwSC_
0000000000130190 w _ZNKSt9money_getIwSt19istreambuf_iteratorIwSt11char_traitsIwEEE10_M_extractILb0EEES3_S3_S3_RSt8ios_baseRSt12_Ios_IostateRSs
0000000000131180 w _ZNKSt9money_getIwSt19istreambuf_iteratorIwSt11char_traitsIwEEE10_M_extractILb1EEES3_S3_S3_RSt8ios_baseRSt12_Ios_IostateRSs
0000000000132160 w _ZNKSt9money_getIwSt19istreambuf_iteratorIwSt11char_traitsIwEEE6do_getES3_S3_bRSt8ios_baseRSt12_Ios_IostateRe
0000000000132280 w _ZNKSt9money_getIwSt19istreambuf_iteratorIwSt11char_traitsIwEEE6do_getES3_S3_bRSt8ios_baseRSt12_Ios_IostateRSbIwS2_SaIwEE
0000000000132430 w _ZNKSt8time_getIwSt19istreambuf_iteratorIwSt11char_traitsIwEEE11do_get_yearES3_S3_RSt8ios_baseRSt12_Ios_IostateP2tm
0000000000132550 w _ZNKSt8time_getIwSt19istreambuf_iteratorIwSt11char_traitsIwEEE6do_getES3_S3_RSt8ios_baseRSt12_Ios_IostateP2tmcc
00000000001326b0 w _ZNKSt8time_getIwSt19istreambuf_iteratorIwSt11char_traitsIwEEE16do_get_monthnameES3_S3_RSt8ios_baseRSt12_Ios_IostateP2tm
0000000000132990 w _ZNKSt7num_getIwSt19istreambuf_iteratorIwSt11char_traitsIwEEE6do_getES3_S3_RSt8ios_baseRSt12_Ios_IostateRd
0000000000132af0 w _ZNKSt7num_getIwSt19istreambuf_iteratorIwSt11char_traitsIwEEE6do_getES3_S3_RSt8ios_baseRSt12_Ios_IostateRe
0000000000132c50 w _ZNKSt7num_getIwSt19istreambuf_iteratorIwSt11char_traitsIwEEE6do_getES3_S3_RSt8ios_baseRSt12_Ios_IostateRf
0000000000132db0 w _ZNSt7__cxx1112basic_stringIwSt11char_traitsIwESaIwEE7_M_dataEPw
0000000000132dc0 w _ZNSt7__cxx1112basic_stringIwSt11char_traitsIwESaIwEE9_M_lengthEm
0000000000132dd0 w _ZNKSt7__cxx1112basic_stringIwSt11char_traitsIwESaIwEE7_M_dataEv
0000000000132de0 w _ZNSt7__cxx1112basic_stringIwSt11char_traitsIwESaIwEE13_M_local_dataEv
0000000000132df0 w _ZNKSt7__cxx1112basic_stringIwSt11char_traitsIwESaIwEE13_M_local_dataEv
0000000000132e00 w _ZNSt7__cxx1112basic_stringIwSt11char_traitsIwESaIwEE11_M_capacityEm
0000000000132e10 w _ZNSt7__cxx1112basic_stringIwSt11char_traitsIwESaIwEE13_M_set_lengthEm
0000000000132e20 w _ZNKSt7__cxx1112basic_stringIwSt11char_traitsIwESaIwEE11_M_is_localEv
0000000000132e30 w _ZNSt7__cxx1112basic_stringIwSt11char_traitsIwESaIwEE9_M_createERmm
0000000000132ec0 w _ZNSt7__cxx1112basic_stringIwSt11char_traitsIwESaIwEE10_M_disposeEv
0000000000132ee0 w _ZNSt7__cxx1112basic_stringIwSt11char_traitsIwESaIwEE10_M_destroyEm
0000000000132ef0 w _ZNSt7__cxx1112basic_stringIwSt11char_traitsIwESaIwEE12_M_constructEmw
0000000000132f70 w _ZNSt7__cxx1112basic_stringIwSt11char_traitsIwESaIwEE18_M_construct_aux_2Emw
0000000000132f80 w _ZNSt7__cxx1112basic_stringIwSt11char_traitsIwESaIwEE16_M_get_allocatorEv
0000000000132f90 w _ZNKSt7__cxx1112basic_stringIwSt11char_traitsIwESaIwEE16_M_get_allocatorEv
0000000000132fa0 w _ZNKSt7__cxx1112basic_stringIwSt11char_traitsIwESaIwEE8_M_checkEmPKc
0000000000132fd0 w _ZNKSt7__cxx1112basic_stringIwSt11char_traitsIwESaIwEE15_M_check_lengthEmmPKc
0000000000133000 w _ZNKSt7__cxx1112basic_stringIwSt11char_traitsIwESaIwEE8_M_limitEmm
0000000000133010 w _ZNKSt7__cxx1112basic_stringIwSt11char_traitsIwESaIwEE11_M_disjunctEPKw
0000000000133030 w _ZNSt7__cxx1112basic_stringIwSt11char_traitsIwESaIwEE7_S_copyEPwPKwm
0000000000133050 w _ZNSt7__cxx1112basic_stringIwSt11char_traitsIwESaIwEE7_S_moveEPwPKwm
0000000000133070 w _ZNSt7__cxx1112basic_stringIwSt11char_traitsIwESaIwEE9_S_assignEPwmw
00000000001330a0 w _ZNSt7__cxx1112basic_stringIwSt11char_traitsIwESaIwEE13_S_copy_charsEPwN9__gnu_cxx17__normal_iteratorIS5_S4_EES8_
00000000001330d0 w _ZNSt7__cxx1112basic_stringIwSt11char_traitsIwESaIwEE13_S_copy_charsEPwN9__gnu_cxx17__normal_iteratorIPKwS4_EESA_
0000000000133100 w _ZNSt7__cxx1112basic_stringIwSt11char_traitsIwESaIwEE13_S_copy_charsEPwS5_S5_
0000000000133130 w _ZNSt7__cxx1112basic_stringIwSt11char_traitsIwESaIwEE13_S_copy_charsEPwPKwS7_
0000000000133160 w _ZNSt7__cxx1112basic_stringIwSt11char_traitsIwESaIwEE10_S_compareEmm
0000000000133190 w _ZNSt7__cxx1112basic_stringIwSt11char_traitsIwESaIwEE9_M_assignERKS4_
0000000000133270 w _ZNSt7__cxx1112basic_stringIwSt11char_traitsIwESaIwEE9_M_mutateEmmPKwm
00000000001333d0 w _ZNSt7__cxx1112basic_stringIwSt11char_traitsIwESaIwEE8_M_eraseEmm
0000000000133440 w _ZNSt7__cxx1112basic_stringIwSt11char_traitsIwESaIwEEC1Ev
0000000000133460 w _ZNSt7__cxx1112basic_stringIwSt11char_traitsIwESaIwEEC1ERKS3_
0000000000133480 w _ZNSt7__cxx1112basic_stringIwSt11char_traitsIwESaIwEEC2EmwRKS3_
0000000000133490 w _ZNSt7__cxx1112basic_stringIwSt11char_traitsIwESaIwEEC2EOS4_
00000000001334f0 w _ZNSt7__cxx1112basic_stringIwSt11char_traitsIwESaIwEED2Ev
0000000000133510 w _ZNSt7__cxx1112basic_stringIwSt11char_traitsIwESaIwEEaSERKS4_
0000000000133520 w _ZNSt7__cxx1112basic_stringIwSt11char_traitsIwESaIwEE5beginEv
0000000000133530 w _ZNKSt7__cxx1112basic_stringIwSt11char_traitsIwESaIwEE5beginEv
0000000000133540 w _ZNSt7__cxx1112basic_stringIwSt11char_traitsIwESaIwEE3endEv
0000000000133550 w _ZNKSt7__cxx1112basic_stringIwSt11char_traitsIwESaIwEE3endEv
0000000000133560 w _ZNSt7__cxx1112basic_stringIwSt11char_traitsIwESaIwEE6rbeginEv
0000000000133580 w _ZNKSt7__cxx1112basic_stringIwSt11char_traitsIwESaIwEE6rbeginEv
00000000001335a0 w _ZNSt7__cxx1112basic_stringIwSt11char_traitsIwESaIwEE4rendEv
00000000001335b0 w _ZNKSt7__cxx1112basic_stringIwSt11char_traitsIwESaIwEE4rendEv
00000000001335c0 w _ZNKSt7__cxx1112basic_stringIwSt11char_traitsIwESaIwEE6cbeginEv
00000000001335d0 w _ZNKSt7__cxx1112basic_stringIwSt11char_traitsIwESaIwEE4cendEv
00000000001335e0 w _ZNKSt7__cxx1112basic_stringIwSt11char_traitsIwESaIwEE7crbeginEv
0000000000133600 w _ZNKSt7__cxx1112basic_stringIwSt11char_traitsIwESaIwEE5crendEv
0000000000133610 w _ZNKSt7__cxx1112basic_stringIwSt11char_traitsIwESaIwEE4sizeEv
0000000000133620 w _ZNKSt7__cxx1112basic_stringIwSt11char_traitsIwESaIwEE6lengthEv
0000000000133630 w _ZNKSt7__cxx1112basic_stringIwSt11char_traitsIwESaIwEE8max_sizeEv
0000000000133640 w _ZNKSt7__cxx1112basic_stringIwSt11char_traitsIwESaIwEE8capacityEv
0000000000133660 w _ZNSt7__cxx1112basic_stringIwSt11char_traitsIwESaIwEE7reserveEm
0000000000133770 w _ZNSt7__cxx1112basic_stringIwSt11char_traitsIwESaIwEE13shrink_to_fitEv
00000000001337c0 w _ZNSt7__cxx1112basic_stringIwSt11char_traitsIwESaIwEE5clearEv
00000000001337e0 w _ZNKSt7__cxx1112basic_stringIwSt11char_traitsIwESaIwEE5emptyEv
00000000001337f0 w _ZNKSt7__cxx1112basic_stringIwSt11char_traitsIwESaIwEEixEm
0000000000133800 w _ZNSt7__cxx1112basic_stringIwSt11char_traitsIwESaIwEEixEm
0000000000133810 w _ZNKSt7__cxx1112basic_stringIwSt11char_traitsIwESaIwEE2atEm
0000000000133830 w _ZNSt7__cxx1112basic_stringIwSt11char_traitsIwESaIwEE2atEm
0000000000133850 w _ZNSt7__cxx1112basic_stringIwSt11char_traitsIwESaIwEE5frontEv
0000000000133860 w _ZNKSt7__cxx1112basic_stringIwSt11char_traitsIwESaIwEE5frontEv
0000000000133870 w _ZNSt7__cxx1112basic_stringIwSt11char_traitsIwESaIwEE4backEv
0000000000133880 w _ZNKSt7__cxx1112basic_stringIwSt11char_traitsIwESaIwEE4backEv
0000000000133890 w _ZNSt7__cxx1112basic_stringIwSt11char_traitsIwESaIwEEpLEw
0000000000133900 w _ZNSt7__cxx1112basic_stringIwSt11char_traitsIwESaIwEE9push_backEw
0000000000133970 w _ZNSt7__cxx1112basic_stringIwSt11char_traitsIwESaIwEE6assignERKS4_
0000000000133980 w _ZNSt7__cxx1112basic_stringIwSt11char_traitsIwESaIwEE5eraseEmm
00000000001339c0 w _ZNSt7__cxx1112basic_stringIwSt11char_traitsIwESaIwEE5eraseEN9__gnu_cxx17__normal_iteratorIPKwS4_EE
00000000001339f0 w _ZNSt7__cxx1112basic_stringIwSt11char_traitsIwESaIwEE5eraseEN9__gnu_cxx17__normal_iteratorIPKwS4_EES9_
0000000000133a20 w _ZNSt7__cxx1112basic_stringIwSt11char_traitsIwESaIwEE8pop_backEv
0000000000133a40 w _ZNSt7__cxx1112basic_stringIwSt11char_traitsIwESaIwEE14_M_replace_auxEmmmw
0000000000133b40 w _ZNSt7__cxx1112basic_stringIwSt11char_traitsIwESaIwEE6appendEmw
0000000000133b60 w _ZNSt7__cxx1112basic_stringIwSt11char_traitsIwESaIwEE6resizeEmw
0000000000133ba0 w _ZNSt7__cxx1112basic_stringIwSt11char_traitsIwESaIwEE6resizeEm
0000000000133bb0 w _ZNSt7__cxx1112basic_stringIwSt11char_traitsIwESaIwEE6assignEmw
0000000000133bd0 w _ZNSt7__cxx1112basic_stringIwSt11char_traitsIwESaIwEEaSEw
0000000000133bf0 w _ZNSt7__cxx1112basic_stringIwSt11char_traitsIwESaIwEE6insertEmmw
0000000000133c20 w _ZNSt7__cxx1112basic_stringIwSt11char_traitsIwESaIwEE6insertEN9__gnu_cxx17__normal_iteratorIPKwS4_EEw
0000000000133c60 w _ZNSt7__cxx1112basic_stringIwSt11char_traitsIwESaIwEE7replaceEmmmw
0000000000133ca0 w _ZNSt7__cxx1112basic_stringIwSt11char_traitsIwESaIwEE7replaceEN9__gnu_cxx17__normal_iteratorIPKwS4_EES9_mw
0000000000133cc0 w _ZNSt7__cxx1112basic_stringIwSt11char_traitsIwESaIwEE6insertEN9__gnu_cxx17__normal_iteratorIPKwS4_EEmw
0000000000133d00 w _ZNSt7__cxx1112basic_stringIwSt11char_traitsIwESaIwEE10_M_replaceEmmPKwm
0000000000133fd0 w _ZNSt7__cxx1112basic_stringIwSt11char_traitsIwESaIwEE6assignERKS4_mm
0000000000134020 w _ZNSt7__cxx1112basic_stringIwSt11char_traitsIwESaIwEE6assignEPKwm
0000000000134040 w _ZNSt7__cxx1112basic_stringIwSt11char_traitsIwESaIwEEaSESt16initializer_listIwE
0000000000134060 w _ZNSt7__cxx1112basic_stringIwSt11char_traitsIwESaIwEE6assignESt16initializer_listIwE
0000000000134080 w _ZNSt7__cxx1112basic_stringIwSt11char_traitsIwESaIwEE6assignEPKw
00000000001340b0 w _ZNSt7__cxx1112basic_stringIwSt11char_traitsIwESaIwEE7replaceEmmPKwm
00000000001340f0 w _ZNSt7__cxx1112basic_stringIwSt11char_traitsIwESaIwEEaSEPKw
0000000000134120 w _ZNSt7__cxx1112basic_stringIwSt11char_traitsIwESaIwEE6insertEmPKwm
0000000000134150 w _ZNSt7__cxx1112basic_stringIwSt11char_traitsIwESaIwEE7replaceEmmRKS4_
0000000000134190 w _ZNSt7__cxx1112basic_stringIwSt11char_traitsIwESaIwEE6insertEmRKS4_
00000000001341d0 w _ZNSt7__cxx1112basic_stringIwSt11char_traitsIwESaIwEE7replaceEmmPKw
0000000000134240 w _ZNSt7__cxx1112basic_stringIwSt11char_traitsIwESaIwEE6insertEmPKw
0000000000134290 w _ZNSt7__cxx1112basic_stringIwSt11char_traitsIwESaIwEE7replaceEN9__gnu_cxx17__normal_iteratorIPKwS4_EES9_S8_m
00000000001342e0 w _ZNSt7__cxx1112basic_stringIwSt11char_traitsIwESaIwEE7replaceEN9__gnu_cxx17__normal_iteratorIPKwS4_EES9_RKS4_
0000000000134340 w _ZNSt7__cxx1112basic_stringIwSt11char_traitsIwESaIwEE7replaceEN9__gnu_cxx17__normal_iteratorIPKwS4_EES9_PwSA_
00000000001343a0 w _ZNSt7__cxx1112basic_stringIwSt11char_traitsIwESaIwEE7replaceEN9__gnu_cxx17__normal_iteratorIPKwS4_EES9_S8_S8_
0000000000134400 w _ZNSt7__cxx1112basic_stringIwSt11char_traitsIwESaIwEE7replaceEN9__gnu_cxx17__normal_iteratorIPKwS4_EES9_S8_
0000000000134480 w _ZNSt7__cxx1112basic_stringIwSt11char_traitsIwESaIwEE6insertEN9__gnu_cxx17__normal_iteratorIPwS4_EESt16initializer_listIwE
00000000001344c0 w _ZNSt7__cxx1112basic_stringIwSt11char_traitsIwESaIwEE7replaceEN9__gnu_cxx17__normal_iteratorIPKwS4_EES9_NS6_IPwS4_EESB_
0000000000134520 w _ZNSt7__cxx1112basic_stringIwSt11char_traitsIwESaIwEE7replaceEN9__gnu_cxx17__normal_iteratorIPKwS4_EES9_S9_S9_
0000000000134580 w _ZNSt7__cxx1112basic_stringIwSt11char_traitsIwESaIwEE7replaceEN9__gnu_cxx17__normal_iteratorIPKwS4_EES9_St16initializer_listIwE
00000000001345e0 w _ZNSt7__cxx1112basic_stringIwSt11char_traitsIwESaIwEE6insertEmRKS4_mm
0000000000134650 w _ZNSt7__cxx1112basic_stringIwSt11char_traitsIwESaIwEE7replaceEmmRKS4_mm
00000000001346d0 w _ZNSt7__cxx1112basic_stringIwSt11char_traitsIwESaIwEE9_M_appendEPKwm
0000000000134760 w _ZNSt7__cxx1112basic_stringIwSt11char_traitsIwESaIwEE6appendERKS4_
0000000000134770 w _ZNSt7__cxx1112basic_stringIwSt11char_traitsIwESaIwEEpLERKS4_
0000000000134780 w _ZNSt7__cxx1112basic_stringIwSt11char_traitsIwESaIwEE6appendERKS4_mm
00000000001347c0 w _ZNSt7__cxx1112basic_stringIwSt11char_traitsIwESaIwEE6appendEPKwm
00000000001347f0 w _ZNSt7__cxx1112basic_stringIwSt11char_traitsIwESaIwEE6appendEPKw
0000000000134840 w _ZNSt7__cxx1112basic_stringIwSt11char_traitsIwESaIwEEpLEPKw
0000000000134890 w _ZNSt7__cxx1112basic_stringIwSt11char_traitsIwESaIwEE6appendESt16initializer_listIwE
00000000001348c0 w _ZNSt7__cxx1112basic_stringIwSt11char_traitsIwESaIwEEpLESt16initializer_listIwE
00000000001348f0 w _ZNKSt7__cxx1112basic_stringIwSt11char_traitsIwESaIwEE4copyEPwmm
0000000000134960 w _ZNSt7__cxx1112basic_stringIwSt11char_traitsIwESaIwEE4swapERS4_
0000000000134b10 w _ZNSt7__cxx1112basic_stringIwSt11char_traitsIwESaIwEEaSEOS4_
0000000000134b20 w _ZNSt7__cxx1112basic_stringIwSt11char_traitsIwESaIwEEC2EOS4_RKS3_
0000000000134b30 w _ZNSt7__cxx1112basic_stringIwSt11char_traitsIwESaIwEE6assignEOS4_
0000000000134b40 w _ZNKSt7__cxx1112basic_stringIwSt11char_traitsIwESaIwEE5c_strEv
0000000000134b50 w _ZNKSt7__cxx1112basic_stringIwSt11char_traitsIwESaIwEE4dataEv
0000000000134b60 w _ZNKSt7__cxx1112basic_stringIwSt11char_traitsIwESaIwEE13get_allocatorEv
0000000000134b70 w _ZNKSt7__cxx1112basic_stringIwSt11char_traitsIwESaIwEE4findEPKwmm
0000000000134c40 w _ZNKSt7__cxx1112basic_stringIwSt11char_traitsIwESaIwEE4findERKS4_m
0000000000134c50 w _ZNKSt7__cxx1112basic_stringIwSt11char_traitsIwESaIwEE4findEPKwm
0000000000134c80 w _ZNKSt7__cxx1112basic_stringIwSt11char_traitsIwESaIwEE4findEwm
0000000000134cd0 w _ZNKSt7__cxx1112basic_stringIwSt11char_traitsIwESaIwEE5rfindEPKwmm
0000000000134d60 w _ZNKSt7__cxx1112basic_stringIwSt11char_traitsIwESaIwEE5rfindERKS4_m
0000000000134d70 w _ZNKSt7__cxx1112basic_stringIwSt11char_traitsIwESaIwEE5rfindEPKwm
0000000000134da0 w _ZNKSt7__cxx1112basic_stringIwSt11char_traitsIwESaIwEE5rfindEwm
0000000000134df0 w _ZNKSt7__cxx1112basic_stringIwSt11char_traitsIwESaIwEE13find_first_ofEPKwmm
0000000000134e60 w _ZNKSt7__cxx1112basic_stringIwSt11char_traitsIwESaIwEE13find_first_ofERKS4_m
0000000000134e70 w _ZNKSt7__cxx1112basic_stringIwSt11char_traitsIwESaIwEE13find_first_ofEPKwm
0000000000134ea0 w _ZNKSt7__cxx1112basic_stringIwSt11char_traitsIwESaIwEE13find_first_ofEwm
0000000000134eb0 w _ZNKSt7__cxx1112basic_stringIwSt11char_traitsIwESaIwEE12find_last_ofEPKwmm
0000000000134f50 w _ZNKSt7__cxx1112basic_stringIwSt11char_traitsIwESaIwEE12find_last_ofERKS4_m
0000000000134f60 w _ZNKSt7__cxx1112basic_stringIwSt11char_traitsIwESaIwEE12find_last_ofEPKwm
0000000000134f90 w _ZNKSt7__cxx1112basic_stringIwSt11char_traitsIwESaIwEE12find_last_ofEwm
0000000000134fa0 w _ZNKSt7__cxx1112basic_stringIwSt11char_traitsIwESaIwEE17find_first_not_ofEPKwmm
0000000000135020 w _ZNKSt7__cxx1112basic_stringIwSt11char_traitsIwESaIwEE17find_first_not_ofERKS4_m
0000000000135030 w _ZNKSt7__cxx1112basic_stringIwSt11char_traitsIwESaIwEE17find_first_not_ofEPKwm
0000000000135060 w _ZNKSt7__cxx1112basic_stringIwSt11char_traitsIwESaIwEE17find_first_not_ofEwm
00000000001350b0 w _ZNKSt7__cxx1112basic_stringIwSt11char_traitsIwESaIwEE16find_last_not_ofEPKwmm
0000000000135140 w _ZNKSt7__cxx1112basic_stringIwSt11char_traitsIwESaIwEE16find_last_not_ofERKS4_m
0000000000135150 w _ZNKSt7__cxx1112basic_stringIwSt11char_traitsIwESaIwEE16find_last_not_ofEPKwm
0000000000135180 w _ZNKSt7__cxx1112basic_stringIwSt11char_traitsIwESaIwEE16find_last_not_ofEwm
00000000001351d0 w _ZNKSt7__cxx1112basic_stringIwSt11char_traitsIwESaIwEE7compareERKS4_
0000000000135230 w _ZNKSt7__cxx1112basic_stringIwSt11char_traitsIwESaIwEE7compareEmmRKS4_
00000000001352d0 w _ZNKSt7__cxx1112basic_stringIwSt11char_traitsIwESaIwEE7compareEmmRKS4_mm
00000000001353b0 w _ZNKSt7__cxx1112basic_stringIwSt11char_traitsIwESaIwEE7compareEPKw
0000000000135430 w _ZNKSt7__cxx1112basic_stringIwSt11char_traitsIwESaIwEE7compareEmmPKw
00000000001354e0 w _ZNKSt7__cxx1112basic_stringIwSt11char_traitsIwESaIwEE7compareEmmPKwm
0000000000135580 w _ZNSt7__cxx1112basic_stringIwSt11char_traitsIwESaIwEE12_Alloc_hiderC1EPwRKS3_
0000000000135590 w _ZStplIwSt11char_traitsIwESaIwEENSt7__cxx1112basic_stringIT_T0_T1_EEPKS5_RKS8_
0000000000135640 w _ZStplIwSt11char_traitsIwESaIwEENSt7__cxx1112basic_stringIT_T0_T1_EES5_RKS8_
00000000001356d0 w _ZNSt7__cxx1112basic_stringIwSt11char_traitsIwESaIwEE12_M_constructIN9__gnu_cxx17__normal_iteratorIPwS4_EEEEvT_SA_St20forward_iterator_tag
0000000000135780 w _ZNSt7__cxx1112basic_stringIwSt11char_traitsIwESaIwEEC2IN9__gnu_cxx17__normal_iteratorIPwS4_EEvEET_SA_RKS3_
00000000001357a0 w _ZNSt7__cxx1112basic_stringIwSt11char_traitsIwESaIwEE12_M_constructIN9__gnu_cxx17__normal_iteratorIPKwS4_EEEEvT_SB_St20forward_iterator_tag
0000000000135850 w _ZNSt7__cxx1112basic_stringIwSt11char_traitsIwESaIwEEC2ERKS4_RKS3_
0000000000135880 w _ZNSt7__cxx1112basic_stringIwSt11char_traitsIwESaIwEE12_M_constructIPwEEvT_S7_St20forward_iterator_tag
0000000000135950 w _ZNSt7__cxx1112basic_stringIwSt11char_traitsIwESaIwEEC1ERKS4_
0000000000135980 w _ZNSt7__cxx1112basic_stringIwSt11char_traitsIwESaIwEEC2IPwvEET_S7_RKS3_
00000000001359a0 w _ZStplIwSt11char_traitsIwESaIwEENSt7__cxx1112basic_stringIT_T0_T1_EERKS8_SA_
0000000000135a00 w _ZNSt7__cxx1112basic_stringIwSt11char_traitsIwESaIwEE12_M_constructIPKwEEvT_S8_St20forward_iterator_tag
0000000000135ad0 w _ZNSt7__cxx1112basic_stringIwSt11char_traitsIwESaIwEEC1ERKS4_mm
0000000000135b30 w _ZNSt7__cxx1112basic_stringIwSt11char_traitsIwESaIwEEC2ERKS4_mmRKS3_
0000000000135b90 w _ZNSt7__cxx1112basic_stringIwSt11char_traitsIwESaIwEEC2EPKwmRKS3_
0000000000135bb0 w _ZNSt7__cxx1112basic_stringIwSt11char_traitsIwESaIwEEC1EPKwRKS3_
0000000000135c00 w _ZNSt7__cxx1112basic_stringIwSt11char_traitsIwESaIwEEC1ESt16initializer_listIwERKS3_
0000000000135c20 w _ZNSt7__cxx1112basic_stringIwSt11char_traitsIwESaIwEEC1IPKwvEET_S8_RKS3_
0000000000135c40 w _ZNKSt7__cxx1112basic_stringIwSt11char_traitsIwESaIwEE6substrEmm
0000000000135c96 ? __func_end
0000000000135d00 v _ZTSSt10lock_error
0000000000135d10 v _ZTSSt14error_category
0000000000135dab D _ZNSt6chrono12system_clock12is_monotonicE
0000000000135e00 v _ZTSNSt13__future_base19_Async_state_commonE
0000000000135e40 v _ZTSN10__cxxabiv117__array_type_infoE
0000000000135e78 v _ZTSSt9bad_alloc
0000000000135ea0 v _ZTSSt16bad_array_length
0000000000135ed0 v _ZTSSt20bad_array_new_length
0000000000135ef8 v _ZTSSt8bad_cast
0000000000135f18 v _ZTSSt10bad_typeid
0000000000135f40 v _ZTSN10__cxxabiv117__class_type_infoE
0000000000136050 v _ZTSSt9exception
0000000000136060 v _ZTSSt13bad_exception
0000000000136100 v _ZTSN10__cxxabiv116__enum_type_infoE
0000000000136140 v _ZTSN10__cxxabiv120__function_type_infoE
0000000000136180 v _ZTSN10__cxxabiv123__fundamental_type_infoE
00000000001361a8 v _ZTSv
00000000001361aa v _ZTSPv
00000000001361ad v _ZTSPKv
00000000001361b1 v _ZTSb
00000000001361b3 v _ZTSPb
00000000001361b6 v _ZTSPKb
00000000001361ba v _ZTSw
00000000001361bc v _ZTSPw
00000000001361bf v _ZTSPKw
00000000001361db v _ZTSc
00000000001361dd v _ZTSPc
00000000001361e0 v _ZTSPKc
00000000001361e4 v _ZTSa
00000000001361e6 v _ZTSPa
00000000001361e9 v _ZTSPKa
00000000001361ed v _ZTSh
00000000001361ef v _ZTSPh
00000000001361f2 v _ZTSPKh
00000000001361f6 v _ZTSs
00000000001361f8 v _ZTSPs
00000000001361fb v _ZTSPKs
00000000001361ff v _ZTSt
0000000000136201 v _ZTSPt
0000000000136204 v _ZTSPKt
0000000000136208 v _ZTSi
000000000013620a v _ZTSPi
000000000013620d v _ZTSPKi
0000000000136211 v _ZTSj
0000000000136213 v _ZTSPj
0000000000136216 v _ZTSPKj
000000000013621a v _ZTSl
000000000013621c v _ZTSPl
000000000013621f v _ZTSPKl
0000000000136223 v _ZTSm
0000000000136225 v _ZTSPm
0000000000136228 v _ZTSPKm
000000000013622c v _ZTSx
000000000013622e v _ZTSPx
0000000000136231 v _ZTSPKx
0000000000136235 v _ZTSy
0000000000136237 v _ZTSPy
000000000013623a v _ZTSPKy
000000000013623e v _ZTSf
0000000000136240 v _ZTSPf
0000000000136243 v _ZTSPKf
0000000000136247 v _ZTSd
0000000000136249 v _ZTSPd
000000000013624c v _ZTSPKd
0000000000136250 v _ZTSe
0000000000136252 v _ZTSPe
0000000000136255 v _ZTSPKe
0000000000136289 v _ZTSn
000000000013628b v _ZTSPn
000000000013628e v _ZTSPKn
0000000000136292 v _ZTSo
0000000000136294 v _ZTSPo
0000000000136297 v _ZTSPKo
000000000013629b v _ZTSg
000000000013629d v _ZTSPg
00000000001362a0 v _ZTSPKg
0000000000136305 D _ZSt7nothrow
0000000000136320 v _ZTSN10__cxxabiv117__pbase_type_infoE
0000000000136360 v _ZTSN10__cxxabiv129__pointer_to_member_type_infoE
00000000001363a0 v _ZTSN10__cxxabiv119__pointer_type_infoE
0000000000136400 v _ZTSN10__cxxabiv120__si_class_type_infoE
0000000000136428 v _ZTSSt9type_info
0000000000136440 v _ZTSN10__cxxabiv121__vmi_class_type_infoE
0000000000137490 v _ZTSSt7codecvtIcc11__mbstate_tE
00000000001374b0 v _ZTSSt7codecvtIwc11__mbstate_tE
0000000000137520 D _ZNSt3tr18__detail12__prime_listE
0000000000137eb0 v _ZTSNSt8ios_base7failureE
0000000000137f60 v _ZTSNSt6locale5facetE
0000000000137f74 D _ZNSt6locale3allE
0000000000137f78 D _ZNSt6locale8messagesE
0000000000137f7c D _ZNSt6locale8monetaryE
0000000000137f80 D _ZNSt6locale4timeE
0000000000137f84 D _ZNSt6locale7collateE
0000000000137f88 D _ZNSt6locale7numericE
0000000000137f8c D _ZNSt6locale5ctypeE
0000000000137f90 D _ZNSt6locale4noneE
0000000000138019 D _ZNSt10money_base18_S_default_patternE
0000000000138130 v _ZTSSt11logic_error
0000000000138140 v _ZTSSt12domain_error
0000000000138160 v _ZTSSt16invalid_argument
0000000000138180 v _ZTSSt12length_error
00000000001381a0 v _ZTSSt12out_of_range
00000000001381c0 v _ZTSSt13runtime_error
00000000001381e0 v _ZTSSt11range_error
00000000001381f0 v _ZTSSt14overflow_error
0000000000138210 v _ZTSSt15underflow_error
0000000000138230 v _ZTSSt12strstreambuf
0000000000138248 v _ZTSSt10istrstream
0000000000138258 v _ZTSSt10ostrstream
0000000000138268 v _ZTSSt9strstream
0000000000138b28 D _ZNSt6chrono3_V212steady_clock9is_steadyE
0000000000138b29 D _ZNSt6chrono3_V212system_clock9is_steadyE
0000000000138b30 v _ZTSSt12codecvt_base
0000000000138b90 v _ZTSSt7codecvtIDsc11__mbstate_tE
0000000000138bf0 v _ZTSSt7codecvtIDic11__mbstate_tE
0000000000138c10 v _ZTSSt19__codecvt_utf8_baseIDsE
0000000000138c30 v _ZTSSt20__codecvt_utf16_baseIDsE
0000000000138c60 v _ZTSSt25__codecvt_utf8_utf16_baseIDsE
0000000000138c90 v _ZTSSt19__codecvt_utf8_baseIDiE
0000000000138cb0 v _ZTSSt20__codecvt_utf16_baseIDiE
0000000000138ce0 v _ZTSSt25__codecvt_utf8_utf16_baseIDiE
0000000000138d10 v _ZTSSt19__codecvt_utf8_baseIwE
0000000000138d30 v _ZTSSt20__codecvt_utf16_baseIwE
0000000000138d60 v _ZTSSt25__codecvt_utf8_utf16_baseIwE
0000000000138d90 v _ZTSSt10ctype_base
0000000000138da0 v _ZTSSt5ctypeIcE
0000000000138db0 v _ZTSSt5ctypeIwE
0000000000138dc0 v _ZTSSt12ctype_bynameIwE
0000000000138dd8 D _ZNSt5ctypeIcE10table_sizeE
0000000000138de0 D _ZNSt10ctype_base5blankE
0000000000138de2 D _ZNSt10ctype_base5graphE
0000000000138de4 D _ZNSt10ctype_base5alnumE
0000000000138de6 D _ZNSt10ctype_base6xdigitE
0000000000138de8 D _ZNSt10ctype_base5punctE
0000000000138dea D _ZNSt10ctype_base5digitE
0000000000138dec D _ZNSt10ctype_base5alphaE
0000000000138dee D _ZNSt10ctype_base5lowerE
0000000000138df0 D _ZNSt10ctype_base5upperE
0000000000138df2 D _ZNSt10ctype_base5cntrlE
0000000000138df4 D _ZNSt10ctype_base5printE
0000000000138df6 D _ZNSt10ctype_base5spaceE
000000000013a170 v _ZTSSt12future_error
000000000013a220 D _ZNSt8__detail12__prime_listE
000000000013ac10 v _ZTSSt8ios_base
000000000013ac1c D _ZNSt8ios_base3endE
000000000013ac20 D _ZNSt8ios_base3curE
000000000013ac24 D _ZNSt8ios_base3begE
000000000013ac28 D _ZNSt8ios_base5truncE
000000000013ac2c D _ZNSt8ios_base3outE
000000000013ac30 D _ZNSt8ios_base2inE
000000000013ac34 D _ZNSt8ios_base6binaryE
000000000013ac38 D _ZNSt8ios_base3ateE
000000000013ac3c D _ZNSt8ios_base3appE
000000000013ac40 D _ZNSt8ios_base7goodbitE
000000000013ac44 D _ZNSt8ios_base7failbitE
000000000013ac48 D _ZNSt8ios_base6eofbitE
000000000013ac4c D _ZNSt8ios_base6badbitE
000000000013ac50 D _ZNSt8ios_base10floatfieldE
000000000013ac54 D _ZNSt8ios_base9basefieldE
000000000013ac58 D _ZNSt8ios_base11adjustfieldE
000000000013ac5c D _ZNSt8ios_base9uppercaseE
000000000013ac60 D _ZNSt8ios_base7unitbufE
000000000013ac64 D _ZNSt8ios_base6skipwsE
000000000013ac68 D _ZNSt8ios_base7showposE
000000000013ac6c D _ZNSt8ios_base9showpointE
000000000013ac70 D _ZNSt8ios_base8showbaseE
000000000013ac74 D _ZNSt8ios_base10scientificE
000000000013ac78 D _ZNSt8ios_base5rightE
000000000013ac7c D _ZNSt8ios_base3octE
000000000013ac80 D _ZNSt8ios_base4leftE
000000000013ac84 D _ZNSt8ios_base8internalE
000000000013ac88 D _ZNSt8ios_base3hexE
000000000013ac8c D _ZNSt8ios_base5fixedE
000000000013ac90 D _ZNSt8ios_base3decE
000000000013ac94 D _ZNSt8ios_base9boolalphaE
000000000013ac98 D _ZNSt14numeric_limitsIDiE11round_styleE
000000000013ac9c D _ZNSt14numeric_limitsIDiE15tinyness_beforeE
000000000013ac9d D _ZNSt14numeric_limitsIDiE5trapsE
000000000013ac9e D _ZNSt14numeric_limitsIDiE9is_moduloE
000000000013ac9f D _ZNSt14numeric_limitsIDiE10is_boundedE
000000000013aca0 D _ZNSt14numeric_limitsIDiE9is_iec559E
000000000013aca1 D _ZNSt14numeric_limitsIDiE15has_denorm_lossE
000000000013aca4 D _ZNSt14numeric_limitsIDiE10has_denormE
000000000013aca8 D _ZNSt14numeric_limitsIDiE17has_signaling_NaNE
000000000013aca9 D _ZNSt14numeric_limitsIDiE13has_quiet_NaNE
000000000013acaa D _ZNSt14numeric_limitsIDiE12has_infinityE
000000000013acac D _ZNSt14numeric_limitsIDiE14max_exponent10E
000000000013acb0 D _ZNSt14numeric_limitsIDiE12max_exponentE
000000000013acb4 D _ZNSt14numeric_limitsIDiE14min_exponent10E
000000000013acb8 D _ZNSt14numeric_limitsIDiE12min_exponentE
000000000013acbc D _ZNSt14numeric_limitsIDiE5radixE
000000000013acc0 D _ZNSt14numeric_limitsIDiE8is_exactE
000000000013acc1 D _ZNSt14numeric_limitsIDiE10is_integerE
000000000013acc2 D _ZNSt14numeric_limitsIDiE9is_signedE
000000000013acc4 D _ZNSt14numeric_limitsIDiE12max_digits10E
000000000013acc8 D _ZNSt14numeric_limitsIDiE8digits10E
000000000013accc D _ZNSt14numeric_limitsIDiE6digitsE
000000000013acd0 D _ZNSt14numeric_limitsIDiE14is_specializedE
000000000013acd4 D _ZNSt14numeric_limitsIDsE11round_styleE
000000000013acd8 D _ZNSt14numeric_limitsIDsE15tinyness_beforeE
000000000013acd9 D _ZNSt14numeric_limitsIDsE5trapsE
000000000013acda D _ZNSt14numeric_limitsIDsE9is_moduloE
000000000013acdb D _ZNSt14numeric_limitsIDsE10is_boundedE
000000000013acdc D _ZNSt14numeric_limitsIDsE9is_iec559E
000000000013acdd D _ZNSt14numeric_limitsIDsE15has_denorm_lossE
000000000013ace0 D _ZNSt14numeric_limitsIDsE10has_denormE
000000000013ace4 D _ZNSt14numeric_limitsIDsE17has_signaling_NaNE
000000000013ace5 D _ZNSt14numeric_limitsIDsE13has_quiet_NaNE
000000000013ace6 D _ZNSt14numeric_limitsIDsE12has_infinityE
000000000013ace8 D _ZNSt14numeric_limitsIDsE14max_exponent10E
000000000013acec D _ZNSt14numeric_limitsIDsE12max_exponentE
000000000013acf0 D _ZNSt14numeric_limitsIDsE14min_exponent10E
000000000013acf4 D _ZNSt14numeric_limitsIDsE12min_exponentE
000000000013acf8 D _ZNSt14numeric_limitsIDsE5radixE
000000000013acfc D _ZNSt14numeric_limitsIDsE8is_exactE
000000000013acfd D _ZNSt14numeric_limitsIDsE10is_integerE
000000000013acfe D _ZNSt14numeric_limitsIDsE9is_signedE
000000000013ad00 D _ZNSt14numeric_limitsIDsE12max_digits10E
000000000013ad04 D _ZNSt14numeric_limitsIDsE8digits10E
000000000013ad08 D _ZNSt14numeric_limitsIDsE6digitsE
000000000013ad0c D _ZNSt14numeric_limitsIDsE14is_specializedE
000000000013ad10 D _ZNSt14numeric_limitsIeE11round_styleE
000000000013ad14 D _ZNSt14numeric_limitsIeE15tinyness_beforeE
000000000013ad15 D _ZNSt14numeric_limitsIeE5trapsE
000000000013ad16 D _ZNSt14numeric_limitsIeE9is_moduloE
000000000013ad17 D _ZNSt14numeric_limitsIeE10is_boundedE
000000000013ad18 D _ZNSt14numeric_limitsIeE9is_iec559E
000000000013ad19 D _ZNSt14numeric_limitsIeE15has_denorm_lossE
000000000013ad1c D _ZNSt14numeric_limitsIeE10has_denormE
000000000013ad20 D _ZNSt14numeric_limitsIeE17has_signaling_NaNE
000000000013ad21 D _ZNSt14numeric_limitsIeE13has_quiet_NaNE
000000000013ad22 D _ZNSt14numeric_limitsIeE12has_infinityE
000000000013ad24 D _ZNSt14numeric_limitsIeE14max_exponent10E
000000000013ad28 D _ZNSt14numeric_limitsIeE12max_exponentE
000000000013ad2c D _ZNSt14numeric_limitsIeE14min_exponent10E
000000000013ad30 D _ZNSt14numeric_limitsIeE12min_exponentE
000000000013ad34 D _ZNSt14numeric_limitsIeE5radixE
000000000013ad38 D _ZNSt14numeric_limitsIeE8is_exactE
000000000013ad39 D _ZNSt14numeric_limitsIeE10is_integerE
000000000013ad3a D _ZNSt14numeric_limitsIeE9is_signedE
000000000013ad3c D _ZNSt14numeric_limitsIeE12max_digits10E
000000000013ad40 D _ZNSt14numeric_limitsIeE8digits10E
000000000013ad44 D _ZNSt14numeric_limitsIeE6digitsE
000000000013ad48 D _ZNSt14numeric_limitsIeE14is_specializedE
000000000013ad4c D _ZNSt14numeric_limitsIdE11round_styleE
000000000013ad50 D _ZNSt14numeric_limitsIdE15tinyness_beforeE
000000000013ad51 D _ZNSt14numeric_limitsIdE5trapsE
000000000013ad52 D _ZNSt14numeric_limitsIdE9is_moduloE
000000000013ad53 D _ZNSt14numeric_limitsIdE10is_boundedE
000000000013ad54 D _ZNSt14numeric_limitsIdE9is_iec559E
000000000013ad55 D _ZNSt14numeric_limitsIdE15has_denorm_lossE
000000000013ad58 D _ZNSt14numeric_limitsIdE10has_denormE
000000000013ad5c D _ZNSt14numeric_limitsIdE17has_signaling_NaNE
000000000013ad5d D _ZNSt14numeric_limitsIdE13has_quiet_NaNE
000000000013ad5e D _ZNSt14numeric_limitsIdE12has_infinityE
000000000013ad60 D _ZNSt14numeric_limitsIdE14max_exponent10E
000000000013ad64 D _ZNSt14numeric_limitsIdE12max_exponentE
000000000013ad68 D _ZNSt14numeric_limitsIdE14min_exponent10E
000000000013ad6c D _ZNSt14numeric_limitsIdE12min_exponentE
000000000013ad70 D _ZNSt14numeric_limitsIdE5radixE
000000000013ad74 D _ZNSt14numeric_limitsIdE8is_exactE
000000000013ad75 D _ZNSt14numeric_limitsIdE10is_integerE
000000000013ad76 D _ZNSt14numeric_limitsIdE9is_signedE
000000000013ad78 D _ZNSt14numeric_limitsIdE12max_digits10E
000000000013ad7c D _ZNSt14numeric_limitsIdE8digits10E
000000000013ad80 D _ZNSt14numeric_limitsIdE6digitsE
000000000013ad84 D _ZNSt14numeric_limitsIdE14is_specializedE
000000000013ad88 D _ZNSt14numeric_limitsIfE11round_styleE
000000000013ad8c D _ZNSt14numeric_limitsIfE15tinyness_beforeE
000000000013ad8d D _ZNSt14numeric_limitsIfE5trapsE
000000000013ad8e D _ZNSt14numeric_limitsIfE9is_moduloE
000000000013ad8f D _ZNSt14numeric_limitsIfE10is_boundedE
000000000013ad90 D _ZNSt14numeric_limitsIfE9is_iec559E
000000000013ad91 D _ZNSt14numeric_limitsIfE15has_denorm_lossE
000000000013ad94 D _ZNSt14numeric_limitsIfE10has_denormE
000000000013ad98 D _ZNSt14numeric_limitsIfE17has_signaling_NaNE
000000000013ad99 D _ZNSt14numeric_limitsIfE13has_quiet_NaNE
000000000013ad9a D _ZNSt14numeric_limitsIfE12has_infinityE
000000000013ad9c D _ZNSt14numeric_limitsIfE14max_exponent10E
000000000013ada0 D _ZNSt14numeric_limitsIfE12max_exponentE
000000000013ada4 D _ZNSt14numeric_limitsIfE14min_exponent10E
000000000013ada8 D _ZNSt14numeric_limitsIfE12min_exponentE
000000000013adac D _ZNSt14numeric_limitsIfE5radixE
000000000013adb0 D _ZNSt14numeric_limitsIfE8is_exactE
000000000013adb1 D _ZNSt14numeric_limitsIfE10is_integerE
000000000013adb2 D _ZNSt14numeric_limitsIfE9is_signedE
000000000013adb4 D _ZNSt14numeric_limitsIfE12max_digits10E
000000000013adb8 D _ZNSt14numeric_limitsIfE8digits10E
000000000013adbc D _ZNSt14numeric_limitsIfE6digitsE
000000000013adc0 D _ZNSt14numeric_limitsIfE14is_specializedE
000000000013adc4 D _ZNSt14numeric_limitsIoE11round_styleE
000000000013adc8 D _ZNSt14numeric_limitsIoE15tinyness_beforeE
000000000013adc9 D _ZNSt14numeric_limitsIoE5trapsE
000000000013adca D _ZNSt14numeric_limitsIoE9is_moduloE
000000000013adcb D _ZNSt14numeric_limitsIoE10is_boundedE
000000000013adcc D _ZNSt14numeric_limitsIoE9is_iec559E
000000000013adcd D _ZNSt14numeric_limitsIoE15has_denorm_lossE
000000000013add0 D _ZNSt14numeric_limitsIoE10has_denormE
000000000013add4 D _ZNSt14numeric_limitsIoE17has_signaling_NaNE
000000000013add5 D _ZNSt14numeric_limitsIoE13has_quiet_NaNE
000000000013add6 D _ZNSt14numeric_limitsIoE12has_infinityE
000000000013add8 D _ZNSt14numeric_limitsIoE14max_exponent10E
000000000013addc D _ZNSt14numeric_limitsIoE12max_exponentE
000000000013ade0 D _ZNSt14numeric_limitsIoE14min_exponent10E
000000000013ade4 D _ZNSt14numeric_limitsIoE12min_exponentE
000000000013ade8 D _ZNSt14numeric_limitsIoE5radixE
000000000013adec D _ZNSt14numeric_limitsIoE8is_exactE
000000000013aded D _ZNSt14numeric_limitsIoE10is_integerE
000000000013adee D _ZNSt14numeric_limitsIoE9is_signedE
000000000013adf0 D _ZNSt14numeric_limitsIoE12max_digits10E
000000000013adf4 D _ZNSt14numeric_limitsIoE8digits10E
000000000013adf8 D _ZNSt14numeric_limitsIoE6digitsE
000000000013adfc D _ZNSt14numeric_limitsIoE14is_specializedE
000000000013ae00 D _ZNSt14numeric_limitsInE11round_styleE
000000000013ae04 D _ZNSt14numeric_limitsInE15tinyness_beforeE
000000000013ae05 D _ZNSt14numeric_limitsInE5trapsE
000000000013ae06 D _ZNSt14numeric_limitsInE9is_moduloE
000000000013ae07 D _ZNSt14numeric_limitsInE10is_boundedE
000000000013ae08 D _ZNSt14numeric_limitsInE9is_iec559E
000000000013ae09 D _ZNSt14numeric_limitsInE15has_denorm_lossE
000000000013ae0c D _ZNSt14numeric_limitsInE10has_denormE
000000000013ae10 D _ZNSt14numeric_limitsInE17has_signaling_NaNE
000000000013ae11 D _ZNSt14numeric_limitsInE13has_quiet_NaNE
000000000013ae12 D _ZNSt14numeric_limitsInE12has_infinityE
000000000013ae14 D _ZNSt14numeric_limitsInE14max_exponent10E
000000000013ae18 D _ZNSt14numeric_limitsInE12max_exponentE
000000000013ae1c D _ZNSt14numeric_limitsInE14min_exponent10E
000000000013ae20 D _ZNSt14numeric_limitsInE12min_exponentE
000000000013ae24 D _ZNSt14numeric_limitsInE5radixE
000000000013ae28 D _ZNSt14numeric_limitsInE8is_exactE
000000000013ae29 D _ZNSt14numeric_limitsInE10is_integerE
000000000013ae2a D _ZNSt14numeric_limitsInE9is_signedE
000000000013ae2c D _ZNSt14numeric_limitsInE12max_digits10E
000000000013ae30 D _ZNSt14numeric_limitsInE8digits10E
000000000013ae34 D _ZNSt14numeric_limitsInE6digitsE
000000000013ae38 D _ZNSt14numeric_limitsInE14is_specializedE
000000000013ae3c D _ZNSt14numeric_limitsIyE11round_styleE
000000000013ae40 D _ZNSt14numeric_limitsIyE15tinyness_beforeE
000000000013ae41 D _ZNSt14numeric_limitsIyE5trapsE
000000000013ae42 D _ZNSt14numeric_limitsIyE9is_moduloE
000000000013ae43 D _ZNSt14numeric_limitsIyE10is_boundedE
000000000013ae44 D _ZNSt14numeric_limitsIyE9is_iec559E
000000000013ae45 D _ZNSt14numeric_limitsIyE15has_denorm_lossE
000000000013ae48 D _ZNSt14numeric_limitsIyE10has_denormE
000000000013ae4c D _ZNSt14numeric_limitsIyE17has_signaling_NaNE
000000000013ae4d D _ZNSt14numeric_limitsIyE13has_quiet_NaNE
000000000013ae4e D _ZNSt14numeric_limitsIyE12has_infinityE
000000000013ae50 D _ZNSt14numeric_limitsIyE14max_exponent10E
000000000013ae54 D _ZNSt14numeric_limitsIyE12max_exponentE
000000000013ae58 D _ZNSt14numeric_limitsIyE14min_exponent10E
000000000013ae5c D _ZNSt14numeric_limitsIyE12min_exponentE
000000000013ae60 D _ZNSt14numeric_limitsIyE5radixE
000000000013ae64 D _ZNSt14numeric_limitsIyE8is_exactE
000000000013ae65 D _ZNSt14numeric_limitsIyE10is_integerE
000000000013ae66 D _ZNSt14numeric_limitsIyE9is_signedE
000000000013ae68 D _ZNSt14numeric_limitsIyE12max_digits10E
000000000013ae6c D _ZNSt14numeric_limitsIyE8digits10E
000000000013ae70 D _ZNSt14numeric_limitsIyE6digitsE
000000000013ae74 D _ZNSt14numeric_limitsIyE14is_specializedE
000000000013ae78 D _ZNSt14numeric_limitsIxE11round_styleE
000000000013ae7c D _ZNSt14numeric_limitsIxE15tinyness_beforeE
000000000013ae7d D _ZNSt14numeric_limitsIxE5trapsE
000000000013ae7e D _ZNSt14numeric_limitsIxE9is_moduloE
000000000013ae7f D _ZNSt14numeric_limitsIxE10is_boundedE
000000000013ae80 D _ZNSt14numeric_limitsIxE9is_iec559E
000000000013ae81 D _ZNSt14numeric_limitsIxE15has_denorm_lossE
000000000013ae84 D _ZNSt14numeric_limitsIxE10has_denormE
000000000013ae88 D _ZNSt14numeric_limitsIxE17has_signaling_NaNE
000000000013ae89 D _ZNSt14numeric_limitsIxE13has_quiet_NaNE
000000000013ae8a D _ZNSt14numeric_limitsIxE12has_infinityE
000000000013ae8c D _ZNSt14numeric_limitsIxE14max_exponent10E
000000000013ae90 D _ZNSt14numeric_limitsIxE12max_exponentE
000000000013ae94 D _ZNSt14numeric_limitsIxE14min_exponent10E
000000000013ae98 D _ZNSt14numeric_limitsIxE12min_exponentE
000000000013ae9c D _ZNSt14numeric_limitsIxE5radixE
000000000013aea0 D _ZNSt14numeric_limitsIxE8is_exactE
000000000013aea1 D _ZNSt14numeric_limitsIxE10is_integerE
000000000013aea2 D _ZNSt14numeric_limitsIxE9is_signedE
000000000013aea4 D _ZNSt14numeric_limitsIxE12max_digits10E
000000000013aea8 D _ZNSt14numeric_limitsIxE8digits10E
000000000013aeac D _ZNSt14numeric_limitsIxE6digitsE
000000000013aeb0 D _ZNSt14numeric_limitsIxE14is_specializedE
000000000013aeb4 D _ZNSt14numeric_limitsImE11round_styleE
000000000013aeb8 D _ZNSt14numeric_limitsImE15tinyness_beforeE
000000000013aeb9 D _ZNSt14numeric_limitsImE5trapsE
000000000013aeba D _ZNSt14numeric_limitsImE9is_moduloE
000000000013aebb D _ZNSt14numeric_limitsImE10is_boundedE
000000000013aebc D _ZNSt14numeric_limitsImE9is_iec559E
000000000013aebd D _ZNSt14numeric_limitsImE15has_denorm_lossE
000000000013aec0 D _ZNSt14numeric_limitsImE10has_denormE
000000000013aec4 D _ZNSt14numeric_limitsImE17has_signaling_NaNE
000000000013aec5 D _ZNSt14numeric_limitsImE13has_quiet_NaNE
000000000013aec6 D _ZNSt14numeric_limitsImE12has_infinityE
000000000013aec8 D _ZNSt14numeric_limitsImE14max_exponent10E
000000000013aecc D _ZNSt14numeric_limitsImE12max_exponentE
000000000013aed0 D _ZNSt14numeric_limitsImE14min_exponent10E
000000000013aed4 D _ZNSt14numeric_limitsImE12min_exponentE
000000000013aed8 D _ZNSt14numeric_limitsImE5radixE
000000000013aedc D _ZNSt14numeric_limitsImE8is_exactE
000000000013aedd D _ZNSt14numeric_limitsImE10is_integerE
000000000013aede D _ZNSt14numeric_limitsImE9is_signedE
000000000013aee0 D _ZNSt14numeric_limitsImE12max_digits10E
000000000013aee4 D _ZNSt14numeric_limitsImE8digits10E
000000000013aee8 D _ZNSt14numeric_limitsImE6digitsE
000000000013aeec D _ZNSt14numeric_limitsImE14is_specializedE
000000000013aef0 D _ZNSt14numeric_limitsIlE11round_styleE
000000000013aef4 D _ZNSt14numeric_limitsIlE15tinyness_beforeE
000000000013aef5 D _ZNSt14numeric_limitsIlE5trapsE
000000000013aef6 D _ZNSt14numeric_limitsIlE9is_moduloE
000000000013aef7 D _ZNSt14numeric_limitsIlE10is_boundedE
000000000013aef8 D _ZNSt14numeric_limitsIlE9is_iec559E
000000000013aef9 D _ZNSt14numeric_limitsIlE15has_denorm_lossE
000000000013aefc D _ZNSt14numeric_limitsIlE10has_denormE
000000000013af00 D _ZNSt14numeric_limitsIlE17has_signaling_NaNE
000000000013af01 D _ZNSt14numeric_limitsIlE13has_quiet_NaNE
000000000013af02 D _ZNSt14numeric_limitsIlE12has_infinityE
000000000013af04 D _ZNSt14numeric_limitsIlE14max_exponent10E
000000000013af08 D _ZNSt14numeric_limitsIlE12max_exponentE
000000000013af0c D _ZNSt14numeric_limitsIlE14min_exponent10E
000000000013af10 D _ZNSt14numeric_limitsIlE12min_exponentE
000000000013af14 D _ZNSt14numeric_limitsIlE5radixE
000000000013af18 D _ZNSt14numeric_limitsIlE8is_exactE
000000000013af19 D _ZNSt14numeric_limitsIlE10is_integerE
000000000013af1a D _ZNSt14numeric_limitsIlE9is_signedE
000000000013af1c D _ZNSt14numeric_limitsIlE12max_digits10E
000000000013af20 D _ZNSt14numeric_limitsIlE8digits10E
000000000013af24 D _ZNSt14numeric_limitsIlE6digitsE
000000000013af28 D _ZNSt14numeric_limitsIlE14is_specializedE
000000000013af2c D _ZNSt14numeric_limitsIjE11round_styleE
000000000013af30 D _ZNSt14numeric_limitsIjE15tinyness_beforeE
000000000013af31 D _ZNSt14numeric_limitsIjE5trapsE
000000000013af32 D _ZNSt14numeric_limitsIjE9is_moduloE
000000000013af33 D _ZNSt14numeric_limitsIjE10is_boundedE
000000000013af34 D _ZNSt14numeric_limitsIjE9is_iec559E
000000000013af35 D _ZNSt14numeric_limitsIjE15has_denorm_lossE
000000000013af38 D _ZNSt14numeric_limitsIjE10has_denormE
000000000013af3c D _ZNSt14numeric_limitsIjE17has_signaling_NaNE
000000000013af3d D _ZNSt14numeric_limitsIjE13has_quiet_NaNE
000000000013af3e D _ZNSt14numeric_limitsIjE12has_infinityE
000000000013af40 D _ZNSt14numeric_limitsIjE14max_exponent10E
000000000013af44 D _ZNSt14numeric_limitsIjE12max_exponentE
000000000013af48 D _ZNSt14numeric_limitsIjE14min_exponent10E
000000000013af4c D _ZNSt14numeric_limitsIjE12min_exponentE
000000000013af50 D _ZNSt14numeric_limitsIjE5radixE
000000000013af54 D _ZNSt14numeric_limitsIjE8is_exactE
000000000013af55 D _ZNSt14numeric_limitsIjE10is_integerE
000000000013af56 D _ZNSt14numeric_limitsIjE9is_signedE
000000000013af58 D _ZNSt14numeric_limitsIjE12max_digits10E
000000000013af5c D _ZNSt14numeric_limitsIjE8digits10E
000000000013af60 D _ZNSt14numeric_limitsIjE6digitsE
000000000013af64 D _ZNSt14numeric_limitsIjE14is_specializedE
000000000013af68 D _ZNSt14numeric_limitsIiE11round_styleE
000000000013af6c D _ZNSt14numeric_limitsIiE15tinyness_beforeE
000000000013af6d D _ZNSt14numeric_limitsIiE5trapsE
000000000013af6e D _ZNSt14numeric_limitsIiE9is_moduloE
000000000013af6f D _ZNSt14numeric_limitsIiE10is_boundedE
000000000013af70 D _ZNSt14numeric_limitsIiE9is_iec559E
000000000013af71 D _ZNSt14numeric_limitsIiE15has_denorm_lossE
000000000013af74 D _ZNSt14numeric_limitsIiE10has_denormE
000000000013af78 D _ZNSt14numeric_limitsIiE17has_signaling_NaNE
000000000013af79 D _ZNSt14numeric_limitsIiE13has_quiet_NaNE
000000000013af7a D _ZNSt14numeric_limitsIiE12has_infinityE
000000000013af7c D _ZNSt14numeric_limitsIiE14max_exponent10E
000000000013af80 D _ZNSt14numeric_limitsIiE12max_exponentE
000000000013af84 D _ZNSt14numeric_limitsIiE14min_exponent10E
000000000013af88 D _ZNSt14numeric_limitsIiE12min_exponentE
000000000013af8c D _ZNSt14numeric_limitsIiE5radixE
000000000013af90 D _ZNSt14numeric_limitsIiE8is_exactE
000000000013af91 D _ZNSt14numeric_limitsIiE10is_integerE
000000000013af92 D _ZNSt14numeric_limitsIiE9is_signedE
000000000013af94 D _ZNSt14numeric_limitsIiE12max_digits10E
000000000013af98 D _ZNSt14numeric_limitsIiE8digits10E
000000000013af9c D _ZNSt14numeric_limitsIiE6digitsE
000000000013afa0 D _ZNSt14numeric_limitsIiE14is_specializedE
000000000013afa4 D _ZNSt14numeric_limitsItE11round_styleE
000000000013afa8 D _ZNSt14numeric_limitsItE15tinyness_beforeE
000000000013afa9 D _ZNSt14numeric_limitsItE5trapsE
000000000013afaa D _ZNSt14numeric_limitsItE9is_moduloE
000000000013afab D _ZNSt14numeric_limitsItE10is_boundedE
000000000013afac D _ZNSt14numeric_limitsItE9is_iec559E
000000000013afad D _ZNSt14numeric_limitsItE15has_denorm_lossE
000000000013afb0 D _ZNSt14numeric_limitsItE10has_denormE
000000000013afb4 D _ZNSt14numeric_limitsItE17has_signaling_NaNE
000000000013afb5 D _ZNSt14numeric_limitsItE13has_quiet_NaNE
000000000013afb6 D _ZNSt14numeric_limitsItE12has_infinityE
000000000013afb8 D _ZNSt14numeric_limitsItE14max_exponent10E
000000000013afbc D _ZNSt14numeric_limitsItE12max_exponentE
000000000013afc0 D _ZNSt14numeric_limitsItE14min_exponent10E
000000000013afc4 D _ZNSt14numeric_limitsItE12min_exponentE
000000000013afc8 D _ZNSt14numeric_limitsItE5radixE
000000000013afcc D _ZNSt14numeric_limitsItE8is_exactE
000000000013afcd D _ZNSt14numeric_limitsItE10is_integerE
000000000013afce D _ZNSt14numeric_limitsItE9is_signedE
000000000013afd0 D _ZNSt14numeric_limitsItE12max_digits10E
000000000013afd4 D _ZNSt14numeric_limitsItE8digits10E
000000000013afd8 D _ZNSt14numeric_limitsItE6digitsE
000000000013afdc D _ZNSt14numeric_limitsItE14is_specializedE
000000000013afe0 D _ZNSt14numeric_limitsIsE11round_styleE
000000000013afe4 D _ZNSt14numeric_limitsIsE15tinyness_beforeE
000000000013afe5 D _ZNSt14numeric_limitsIsE5trapsE
000000000013afe6 D _ZNSt14numeric_limitsIsE9is_moduloE
000000000013afe7 D _ZNSt14numeric_limitsIsE10is_boundedE
000000000013afe8 D _ZNSt14numeric_limitsIsE9is_iec559E
000000000013afe9 D _ZNSt14numeric_limitsIsE15has_denorm_lossE
000000000013afec D _ZNSt14numeric_limitsIsE10has_denormE
000000000013aff0 D _ZNSt14numeric_limitsIsE17has_signaling_NaNE
000000000013aff1 D _ZNSt14numeric_limitsIsE13has_quiet_NaNE
000000000013aff2 D _ZNSt14numeric_limitsIsE12has_infinityE
000000000013aff4 D _ZNSt14numeric_limitsIsE14max_exponent10E
000000000013aff8 D _ZNSt14numeric_limitsIsE12max_exponentE
000000000013affc D _ZNSt14numeric_limitsIsE14min_exponent10E
000000000013b000 D _ZNSt14numeric_limitsIsE12min_exponentE
000000000013b004 D _ZNSt14numeric_limitsIsE5radixE
000000000013b008 D _ZNSt14numeric_limitsIsE8is_exactE
000000000013b009 D _ZNSt14numeric_limitsIsE10is_integerE
000000000013b00a D _ZNSt14numeric_limitsIsE9is_signedE
000000000013b00c D _ZNSt14numeric_limitsIsE12max_digits10E
000000000013b010 D _ZNSt14numeric_limitsIsE8digits10E
000000000013b014 D _ZNSt14numeric_limitsIsE6digitsE
000000000013b018 D _ZNSt14numeric_limitsIsE14is_specializedE
000000000013b01c D _ZNSt14numeric_limitsIwE11round_styleE
000000000013b020 D _ZNSt14numeric_limitsIwE15tinyness_beforeE
000000000013b021 D _ZNSt14numeric_limitsIwE5trapsE
000000000013b022 D _ZNSt14numeric_limitsIwE9is_moduloE
000000000013b023 D _ZNSt14numeric_limitsIwE10is_boundedE
000000000013b024 D _ZNSt14numeric_limitsIwE9is_iec559E
000000000013b025 D _ZNSt14numeric_limitsIwE15has_denorm_lossE
000000000013b028 D _ZNSt14numeric_limitsIwE10has_denormE
000000000013b02c D _ZNSt14numeric_limitsIwE17has_signaling_NaNE
000000000013b02d D _ZNSt14numeric_limitsIwE13has_quiet_NaNE
000000000013b02e D _ZNSt14numeric_limitsIwE12has_infinityE
000000000013b030 D _ZNSt14numeric_limitsIwE14max_exponent10E
000000000013b034 D _ZNSt14numeric_limitsIwE12max_exponentE
000000000013b038 D _ZNSt14numeric_limitsIwE14min_exponent10E
000000000013b03c D _ZNSt14numeric_limitsIwE12min_exponentE
000000000013b040 D _ZNSt14numeric_limitsIwE5radixE
000000000013b044 D _ZNSt14numeric_limitsIwE8is_exactE
000000000013b045 D _ZNSt14numeric_limitsIwE10is_integerE
000000000013b046 D _ZNSt14numeric_limitsIwE9is_signedE
000000000013b048 D _ZNSt14numeric_limitsIwE12max_digits10E
000000000013b04c D _ZNSt14numeric_limitsIwE8digits10E
000000000013b050 D _ZNSt14numeric_limitsIwE6digitsE
000000000013b054 D _ZNSt14numeric_limitsIwE14is_specializedE
000000000013b058 D _ZNSt14numeric_limitsIhE11round_styleE
000000000013b05c D _ZNSt14numeric_limitsIhE15tinyness_beforeE
000000000013b05d D _ZNSt14numeric_limitsIhE5trapsE
000000000013b05e D _ZNSt14numeric_limitsIhE9is_moduloE
000000000013b05f D _ZNSt14numeric_limitsIhE10is_boundedE
000000000013b060 D _ZNSt14numeric_limitsIhE9is_iec559E
000000000013b061 D _ZNSt14numeric_limitsIhE15has_denorm_lossE
000000000013b064 D _ZNSt14numeric_limitsIhE10has_denormE
000000000013b068 D _ZNSt14numeric_limitsIhE17has_signaling_NaNE
000000000013b069 D _ZNSt14numeric_limitsIhE13has_quiet_NaNE
000000000013b06a D _ZNSt14numeric_limitsIhE12has_infinityE
000000000013b06c D _ZNSt14numeric_limitsIhE14max_exponent10E
000000000013b070 D _ZNSt14numeric_limitsIhE12max_exponentE
000000000013b074 D _ZNSt14numeric_limitsIhE14min_exponent10E
000000000013b078 D _ZNSt14numeric_limitsIhE12min_exponentE
000000000013b07c D _ZNSt14numeric_limitsIhE5radixE
000000000013b080 D _ZNSt14numeric_limitsIhE8is_exactE
000000000013b081 D _ZNSt14numeric_limitsIhE10is_integerE
000000000013b082 D _ZNSt14numeric_limitsIhE9is_signedE
000000000013b084 D _ZNSt14numeric_limitsIhE12max_digits10E
000000000013b088 D _ZNSt14numeric_limitsIhE8digits10E
000000000013b08c D _ZNSt14numeric_limitsIhE6digitsE
000000000013b090 D _ZNSt14numeric_limitsIhE14is_specializedE
000000000013b094 D _ZNSt14numeric_limitsIaE11round_styleE
000000000013b098 D _ZNSt14numeric_limitsIaE15tinyness_beforeE
000000000013b099 D _ZNSt14numeric_limitsIaE5trapsE
000000000013b09a D _ZNSt14numeric_limitsIaE9is_moduloE
000000000013b09b D _ZNSt14numeric_limitsIaE10is_boundedE
000000000013b09c D _ZNSt14numeric_limitsIaE9is_iec559E
000000000013b09d D _ZNSt14numeric_limitsIaE15has_denorm_lossE
000000000013b0a0 D _ZNSt14numeric_limitsIaE10has_denormE
000000000013b0a4 D _ZNSt14numeric_limitsIaE17has_signaling_NaNE
000000000013b0a5 D _ZNSt14numeric_limitsIaE13has_quiet_NaNE
000000000013b0a6 D _ZNSt14numeric_limitsIaE12has_infinityE
000000000013b0a8 D _ZNSt14numeric_limitsIaE14max_exponent10E
000000000013b0ac D _ZNSt14numeric_limitsIaE12max_exponentE
000000000013b0b0 D _ZNSt14numeric_limitsIaE14min_exponent10E
000000000013b0b4 D _ZNSt14numeric_limitsIaE12min_exponentE
000000000013b0b8 D _ZNSt14numeric_limitsIaE5radixE
000000000013b0bc D _ZNSt14numeric_limitsIaE8is_exactE
000000000013b0bd D _ZNSt14numeric_limitsIaE10is_integerE
000000000013b0be D _ZNSt14numeric_limitsIaE9is_signedE
000000000013b0c0 D _ZNSt14numeric_limitsIaE12max_digits10E
000000000013b0c4 D _ZNSt14numeric_limitsIaE8digits10E
000000000013b0c8 D _ZNSt14numeric_limitsIaE6digitsE
000000000013b0cc D _ZNSt14numeric_limitsIaE14is_specializedE
000000000013b0d0 D _ZNSt14numeric_limitsIcE11round_styleE
000000000013b0d4 D _ZNSt14numeric_limitsIcE15tinyness_beforeE
000000000013b0d5 D _ZNSt14numeric_limitsIcE5trapsE
000000000013b0d6 D _ZNSt14numeric_limitsIcE9is_moduloE
000000000013b0d7 D _ZNSt14numeric_limitsIcE10is_boundedE
000000000013b0d8 D _ZNSt14numeric_limitsIcE9is_iec559E
000000000013b0d9 D _ZNSt14numeric_limitsIcE15has_denorm_lossE
000000000013b0dc D _ZNSt14numeric_limitsIcE10has_denormE
000000000013b0e0 D _ZNSt14numeric_limitsIcE17has_signaling_NaNE
000000000013b0e1 D _ZNSt14numeric_limitsIcE13has_quiet_NaNE
000000000013b0e2 D _ZNSt14numeric_limitsIcE12has_infinityE
000000000013b0e4 D _ZNSt14numeric_limitsIcE14max_exponent10E
000000000013b0e8 D _ZNSt14numeric_limitsIcE12max_exponentE
000000000013b0ec D _ZNSt14numeric_limitsIcE14min_exponent10E
000000000013b0f0 D _ZNSt14numeric_limitsIcE12min_exponentE
000000000013b0f4 D _ZNSt14numeric_limitsIcE5radixE
000000000013b0f8 D _ZNSt14numeric_limitsIcE8is_exactE
000000000013b0f9 D _ZNSt14numeric_limitsIcE10is_integerE
000000000013b0fa D _ZNSt14numeric_limitsIcE9is_signedE
000000000013b0fc D _ZNSt14numeric_limitsIcE12max_digits10E
000000000013b100 D _ZNSt14numeric_limitsIcE8digits10E
000000000013b104 D _ZNSt14numeric_limitsIcE6digitsE
000000000013b108 D _ZNSt14numeric_limitsIcE14is_specializedE
000000000013b10c D _ZNSt14numeric_limitsIbE11round_styleE
000000000013b110 D _ZNSt14numeric_limitsIbE15tinyness_beforeE
000000000013b111 D _ZNSt14numeric_limitsIbE5trapsE
000000000013b112 D _ZNSt14numeric_limitsIbE9is_moduloE
000000000013b113 D _ZNSt14numeric_limitsIbE10is_boundedE
000000000013b114 D _ZNSt14numeric_limitsIbE9is_iec559E
000000000013b115 D _ZNSt14numeric_limitsIbE15has_denorm_lossE
000000000013b118 D _ZNSt14numeric_limitsIbE10has_denormE
000000000013b11c D _ZNSt14numeric_limitsIbE17has_signaling_NaNE
000000000013b11d D _ZNSt14numeric_limitsIbE13has_quiet_NaNE
000000000013b11e D _ZNSt14numeric_limitsIbE12has_infinityE
000000000013b120 D _ZNSt14numeric_limitsIbE14max_exponent10E
000000000013b124 D _ZNSt14numeric_limitsIbE12max_exponentE
000000000013b128 D _ZNSt14numeric_limitsIbE14min_exponent10E
000000000013b12c D _ZNSt14numeric_limitsIbE12min_exponentE
000000000013b130 D _ZNSt14numeric_limitsIbE5radixE
000000000013b134 D _ZNSt14numeric_limitsIbE8is_exactE
000000000013b135 D _ZNSt14numeric_limitsIbE10is_integerE
000000000013b136 D _ZNSt14numeric_limitsIbE9is_signedE
000000000013b138 D _ZNSt14numeric_limitsIbE12max_digits10E
000000000013b13c D _ZNSt14numeric_limitsIbE8digits10E
000000000013b140 D _ZNSt14numeric_limitsIbE6digitsE
000000000013b144 D _ZNSt14numeric_limitsIbE14is_specializedE
000000000013b148 D _ZNSt21__numeric_limits_base11round_styleE
000000000013b14c D _ZNSt21__numeric_limits_base15tinyness_beforeE
000000000013b14d D _ZNSt21__numeric_limits_base5trapsE
000000000013b14e D _ZNSt21__numeric_limits_base9is_moduloE
000000000013b14f D _ZNSt21__numeric_limits_base10is_boundedE
000000000013b150 D _ZNSt21__numeric_limits_base9is_iec559E
000000000013b151 D _ZNSt21__numeric_limits_base15has_denorm_lossE
000000000013b154 D _ZNSt21__numeric_limits_base10has_denormE
000000000013b158 D _ZNSt21__numeric_limits_base17has_signaling_NaNE
000000000013b159 D _ZNSt21__numeric_limits_base13has_quiet_NaNE
000000000013b15a D _ZNSt21__numeric_limits_base12has_infinityE
000000000013b15c D _ZNSt21__numeric_limits_base14max_exponent10E
000000000013b160 D _ZNSt21__numeric_limits_base12max_exponentE
000000000013b164 D _ZNSt21__numeric_limits_base14min_exponent10E
000000000013b168 D _ZNSt21__numeric_limits_base12min_exponentE
000000000013b16c D _ZNSt21__numeric_limits_base5radixE
000000000013b170 D _ZNSt21__numeric_limits_base8is_exactE
000000000013b171 D _ZNSt21__numeric_limits_base10is_integerE
000000000013b172 D _ZNSt21__numeric_limits_base9is_signedE
000000000013b174 D _ZNSt21__numeric_limits_base12max_digits10E
000000000013b178 D _ZNSt21__numeric_limits_base8digits10E
000000000013b17c D _ZNSt21__numeric_limits_base6digitsE
000000000013b180 D _ZNSt21__numeric_limits_base14is_specializedE
000000000013b181 D _ZNSt12placeholders3_29E
000000000013b182 D _ZNSt12placeholders3_28E
000000000013b183 D _ZNSt12placeholders3_27E
000000000013b184 D _ZNSt12placeholders3_26E
000000000013b185 D _ZNSt12placeholders3_25E
000000000013b186 D _ZNSt12placeholders3_24E
000000000013b187 D _ZNSt12placeholders3_23E
000000000013b188 D _ZNSt12placeholders3_22E
000000000013b189 D _ZNSt12placeholders3_21E
000000000013b18a D _ZNSt12placeholders3_20E
000000000013b18b D _ZNSt12placeholders3_19E
000000000013b18c D _ZNSt12placeholders3_18E
000000000013b18d D _ZNSt12placeholders3_17E
000000000013b18e D _ZNSt12placeholders3_16E
000000000013b18f D _ZNSt12placeholders3_15E
000000000013b190 D _ZNSt12placeholders3_14E
000000000013b191 D _ZNSt12placeholders3_13E
000000000013b192 D _ZNSt12placeholders3_12E
000000000013b193 D _ZNSt12placeholders3_11E
000000000013b194 D _ZNSt12placeholders3_10E
000000000013b195 D _ZNSt12placeholders2_9E
000000000013b196 D _ZNSt12placeholders2_8E
000000000013b197 D _ZNSt12placeholders2_7E
000000000013b198 D _ZNSt12placeholders2_6E
000000000013b199 D _ZNSt12placeholders2_5E
000000000013b19a D _ZNSt12placeholders2_4E
000000000013b19b D _ZNSt12placeholders2_3E
000000000013b19c D _ZNSt12placeholders2_2E
000000000013b19d D _ZNSt12placeholders2_1E
000000000013b2f0 v _ZTSSt12system_error
000000000013b8f0 v _ZTSNSt8ios_base7failureB5cxx11E
000000000013be40 v _ZTSSt12ctype_bynameIcE
000000000013be60 v _ZTSSt15basic_stringbufIcSt11char_traitsIcESaIcEE
000000000013bea0 v _ZTSSt19basic_istringstreamIcSt11char_traitsIcESaIcEE
000000000013bee0 v _ZTSSt19basic_ostringstreamIcSt11char_traitsIcESaIcEE
000000000013bf20 v _ZTSSt18basic_stringstreamIcSt11char_traitsIcESaIcEE
000000000013bf60 v _ZTSSt15basic_stringbufIwSt11char_traitsIwESaIwEE
000000000013bfa0 v _ZTSSt19basic_istringstreamIwSt11char_traitsIwESaIwEE
000000000013bfe0 v _ZTSSt19basic_ostringstreamIwSt11char_traitsIwESaIwEE
000000000013c020 v _ZTSSt18basic_stringstreamIwSt11char_traitsIwESaIwEE
000000000013c1ab u _ZNSs4_Rep11_S_terminalE
000000000013c1b0 u _ZNSs4_Rep11_S_max_sizeE
000000000013c1b8 u _ZNSs4nposE
000000000013c1c0 u _ZNSbIwSt11char_traitsIwESaIwEE4_Rep11_S_terminalE
000000000013c1c8 u _ZNSbIwSt11char_traitsIwESaIwEE4_Rep11_S_max_sizeE
000000000013c1d0 u _ZNSbIwSt11char_traitsIwESaIwEE4nposE
000000000013c318 v _ZTSSt10money_base
000000000013c330 v _ZTSSt13messages_base
000000000013c348 v _ZTSSt9time_base
000000000013c360 v _ZTSNSt7__cxx117collateIcEE
000000000013c380 v _ZTSNSt7__cxx1114collate_bynameIcEE
000000000013c3a0 v _ZTSNSt7__cxx118numpunctIcEE
000000000013c3c0 v _ZTSNSt7__cxx1115numpunct_bynameIcEE
000000000013c400 v _ZTSNSt7__cxx1110moneypunctIcLb1EEE
000000000013c420 v _ZTSNSt7__cxx1110moneypunctIcLb0EEE
000000000013c440 v _ZTSNSt7__cxx118messagesIcEE
000000000013c460 v _ZTSNSt7__cxx1117moneypunct_bynameIcLb0EEE
000000000013c4a0 v _ZTSNSt7__cxx1117moneypunct_bynameIcLb1EEE
000000000013c4e0 v _ZTSNSt7__cxx119money_getIcSt19istreambuf_iteratorIcSt11char_traitsIcEEEE
000000000013c540 v _ZTSNSt7__cxx119money_putIcSt19ostreambuf_iteratorIcSt11char_traitsIcEEEE
000000000013c5a0 v _ZTSNSt7__cxx118time_getIcSt19istreambuf_iteratorIcSt11char_traitsIcEEEE
000000000013c600 v _ZTSNSt7__cxx1115time_get_bynameIcSt19istreambuf_iteratorIcSt11char_traitsIcEEEE
000000000013c660 v _ZTSNSt7__cxx1115messages_bynameIcEE
000000000013c681 u _ZNSt7__cxx1117moneypunct_bynameIcLb1EE4intlE
000000000013c682 u _ZNSt7__cxx1117moneypunct_bynameIcLb0EE4intlE
000000000013c683 u _ZNSt7__cxx1110moneypunctIcLb1EE4intlE
000000000013c684 u _ZNSt7__cxx1110moneypunctIcLb0EE4intlE
000000000013c7c0 v _ZTSNSt7__cxx117collateIwEE
000000000013c7e0 v _ZTSNSt7__cxx1114collate_bynameIwEE
000000000013c800 v _ZTSNSt7__cxx118numpunctIwEE
000000000013c820 v _ZTSNSt7__cxx1115numpunct_bynameIwEE
000000000013c860 v _ZTSNSt7__cxx1110moneypunctIwLb1EEE
000000000013c880 v _ZTSNSt7__cxx1110moneypunctIwLb0EEE
000000000013c8a0 v _ZTSNSt7__cxx118messagesIwEE
000000000013c8c0 v _ZTSNSt7__cxx1117moneypunct_bynameIwLb0EEE
000000000013c900 v _ZTSNSt7__cxx1117moneypunct_bynameIwLb1EEE
000000000013c940 v _ZTSNSt7__cxx119money_getIwSt19istreambuf_iteratorIwSt11char_traitsIwEEEE
000000000013c9a0 v _ZTSNSt7__cxx119money_putIwSt19ostreambuf_iteratorIwSt11char_traitsIwEEEE
000000000013ca00 v _ZTSNSt7__cxx118time_getIwSt19istreambuf_iteratorIwSt11char_traitsIwEEEE
000000000013ca60 v _ZTSNSt7__cxx1115time_get_bynameIwSt19istreambuf_iteratorIwSt11char_traitsIwEEEE
000000000013cac0 v _ZTSNSt7__cxx1115messages_bynameIwEE
000000000013cae1 u _ZNSt7__cxx1117moneypunct_bynameIwLb1EE4intlE
000000000013cae2 u _ZNSt7__cxx1117moneypunct_bynameIwLb0EE4intlE
000000000013cae3 u _ZNSt7__cxx1110moneypunctIwLb1EE4intlE
000000000013cae4 u _ZNSt7__cxx1110moneypunctIwLb0EE4intlE
000000000013cb00 v _ZTSN9__gnu_cxx18stdio_sync_filebufIcSt11char_traitsIcEEE
000000000013cb40 v _ZTSN9__gnu_cxx18stdio_sync_filebufIwSt11char_traitsIwEEE
000000000013cb80 v _ZTSN9__gnu_cxx13stdio_filebufIcSt11char_traitsIcEEE
000000000013cbc0 v _ZTSN9__gnu_cxx13stdio_filebufIwSt11char_traitsIwEEE
000000000013cd40 v _ZTSSt13basic_filebufIcSt11char_traitsIcEE
000000000013cd80 v _ZTSSt14basic_ifstreamIcSt11char_traitsIcEE
000000000013cdc0 v _ZTSSt14basic_ofstreamIcSt11char_traitsIcEE
000000000013ce00 v _ZTSSt13basic_fstreamIcSt11char_traitsIcEE
000000000013ce40 v _ZTSSt13basic_filebufIwSt11char_traitsIwEE
000000000013ce80 v _ZTSSt14basic_ifstreamIwSt11char_traitsIwEE
000000000013cec0 v _ZTSSt14basic_ofstreamIwSt11char_traitsIwEE
000000000013cf00 v _ZTSSt13basic_fstreamIwSt11char_traitsIwEE
000000000013cf40 v _ZTSSt9basic_iosIcSt11char_traitsIcEE
000000000013cf80 v _ZTSSt9basic_iosIwSt11char_traitsIwEE
000000000013cfa2 v _ZTSSd
000000000013cfc0 v _ZTSSt14basic_iostreamIwSt11char_traitsIwEE
000000000013cfe8 v _ZTSSi
000000000013d000 v _ZTSSt13basic_istreamIwSt11char_traitsIwEE
000000000013d160 v _ZTSSt7collateIcE
000000000013d170 v _ZTSSt14collate_bynameIcE
000000000013d188 v _ZTSSt8numpunctIcE
000000000013d1a0 v _ZTSSt15numpunct_bynameIcE
000000000013d1c0 v _ZTSSt7num_getIcSt19istreambuf_iteratorIcSt11char_traitsIcEEE
000000000013d200 v _ZTSSt7num_putIcSt19ostreambuf_iteratorIcSt11char_traitsIcEEE
000000000013d260 v _ZTSSt11__timepunctIcE
000000000013d280 v _ZTSSt10moneypunctIcLb1EE
000000000013d2a0 v _ZTSSt10moneypunctIcLb0EE
000000000013d2b8 v _ZTSSt8messagesIcE
000000000013d2e0 v _ZTSSt23__codecvt_abstract_baseIcc11__mbstate_tE
000000000013d320 v _ZTSSt14codecvt_bynameIcc11__mbstate_tE
000000000013d350 v _ZTSSt17moneypunct_bynameIcLb0EE
000000000013d370 v _ZTSSt17moneypunct_bynameIcLb1EE
000000000013d3a0 v _ZTSSt9money_getIcSt19istreambuf_iteratorIcSt11char_traitsIcEEE
000000000013d3e0 v _ZTSSt9money_putIcSt19ostreambuf_iteratorIcSt11char_traitsIcEEE
000000000013d420 v _ZTSSt8time_putIcSt19ostreambuf_iteratorIcSt11char_traitsIcEEE
000000000013d460 v _ZTSSt15time_put_bynameIcSt19ostreambuf_iteratorIcSt11char_traitsIcEEE
000000000013d4c0 v _ZTSSt8time_getIcSt19istreambuf_iteratorIcSt11char_traitsIcEEE
000000000013d500 v _ZTSSt15time_get_bynameIcSt19istreambuf_iteratorIcSt11char_traitsIcEEE
000000000013d550 v _ZTSSt15messages_bynameIcE
000000000013d570 v _ZTSSt21__ctype_abstract_baseIcE
000000000013d58d u _ZNSt17moneypunct_bynameIcLb1EE4intlE
000000000013d58e u _ZNSt17moneypunct_bynameIcLb0EE4intlE
000000000013d58f u _ZNSt10moneypunctIcLb1EE4intlE
000000000013d590 u _ZNSt10moneypunctIcLb0EE4intlE
000000000013d591 v _ZTSSo
000000000013d5a0 v _ZTSSt13basic_ostreamIwSt11char_traitsIwEE
000000000013d5e0 v _ZTSNSt7__cxx1115basic_stringbufIcSt11char_traitsIcESaIcEEE
000000000013d620 v _ZTSNSt7__cxx1119basic_istringstreamIcSt11char_traitsIcESaIcEEE
000000000013d660 v _ZTSNSt7__cxx1119basic_ostringstreamIcSt11char_traitsIcESaIcEEE
000000000013d6a0 v _ZTSNSt7__cxx1118basic_stringstreamIcSt11char_traitsIcESaIcEEE
000000000013d6e0 v _ZTSNSt7__cxx1115basic_stringbufIwSt11char_traitsIwESaIwEEE
000000000013d720 v _ZTSNSt7__cxx1119basic_istringstreamIwSt11char_traitsIwESaIwEEE
000000000013d760 v _ZTSNSt7__cxx1119basic_ostringstreamIwSt11char_traitsIwESaIwEEE
000000000013d7a0 v _ZTSNSt7__cxx1118basic_stringstreamIwSt11char_traitsIwESaIwEEE
000000000013d7e0 v _ZTSSt15basic_streambufIcSt11char_traitsIcEE
000000000013d820 v _ZTSSt15basic_streambufIwSt11char_traitsIwEE
000000000013d890 u _ZNSt7__cxx1112basic_stringIcSt11char_traitsIcESaIcEE4nposE
000000000013d9d0 v _ZTSSt7collateIwE
000000000013d9e0 v _ZTSSt14collate_bynameIwE
000000000013da00 v _ZTSSt21__ctype_abstract_baseIwE
000000000013da20 v _ZTSSt8numpunctIwE
000000000013da30 v _ZTSSt15numpunct_bynameIwE
000000000013da60 v _ZTSSt7num_getIwSt19istreambuf_iteratorIwSt11char_traitsIwEEE
000000000013daa0 v _ZTSSt7num_putIwSt19ostreambuf_iteratorIwSt11char_traitsIwEEE
000000000013db00 v _ZTSSt11__timepunctIwE
000000000013db20 v _ZTSSt10moneypunctIwLb1EE
000000000013db40 v _ZTSSt10moneypunctIwLb0EE
000000000013db58 v _ZTSSt8messagesIwE
000000000013db80 v _ZTSSt23__codecvt_abstract_baseIwc11__mbstate_tE
000000000013dbc0 v _ZTSSt14codecvt_bynameIwc11__mbstate_tE
000000000013dbf0 v _ZTSSt17moneypunct_bynameIwLb0EE
000000000013dc10 v _ZTSSt17moneypunct_bynameIwLb1EE
000000000013dc40 v _ZTSSt9money_getIwSt19istreambuf_iteratorIwSt11char_traitsIwEEE
000000000013dc80 v _ZTSSt9money_putIwSt19ostreambuf_iteratorIwSt11char_traitsIwEEE
000000000013dcc0 v _ZTSSt8time_putIwSt19ostreambuf_iteratorIwSt11char_traitsIwEEE
000000000013dd00 v _ZTSSt15time_put_bynameIwSt19ostreambuf_iteratorIwSt11char_traitsIwEEE
000000000013dd60 v _ZTSSt8time_getIwSt19istreambuf_iteratorIwSt11char_traitsIwEEE
000000000013dda0 v _ZTSSt15time_get_bynameIwSt19istreambuf_iteratorIwSt11char_traitsIwEEE
000000000013ddf0 v _ZTSSt15messages_bynameIwE
000000000013de07 u _ZNSt17moneypunct_bynameIwLb1EE4intlE
000000000013de08 u _ZNSt17moneypunct_bynameIwLb0EE4intlE
000000000013de09 u _ZNSt10moneypunctIwLb1EE4intlE
000000000013de0a u _ZNSt10moneypunctIwLb0EE4intlE
000000000013de10 u _ZNSt7__cxx1112basic_stringIwSt11char_traitsIwESaIwEE4nposE
0000000000373588 v _ZTISt10lock_error
00000000003735a0 v _ZTISt14error_category
00000000003735e0 v _ZTVSt10lock_error
0000000000373608 v _ZTVSt14error_category
00000000003736e0 v _ZTINSt13__future_base11_State_baseE
00000000003736f0 v _ZTINSt13__future_base19_Async_state_commonE
0000000000373708 v _ZTVNSt13__future_base11_State_baseE
0000000000373730 v _ZTVNSt13__future_base19_Async_state_commonE
0000000000373758 v _ZTIN10__cxxabiv117__array_type_infoE
0000000000373770 v _ZTVN10__cxxabiv117__array_type_infoE
00000000003737b0 v _ZTISt9bad_alloc
00000000003737c8 v _ZTVSt9bad_alloc
00000000003737f0 v _ZTISt16bad_array_length
0000000000373808 v _ZTVSt16bad_array_length
0000000000373830 v _ZTISt20bad_array_new_length
0000000000373848 v _ZTVSt20bad_array_new_length
0000000000373870 v _ZTISt8bad_cast
0000000000373888 v _ZTVSt8bad_cast
00000000003738b0 v _ZTISt10bad_typeid
00000000003738c8 v _ZTVSt10bad_typeid
00000000003738f0 v _ZTIN10__cxxabiv117__class_type_infoE
0000000000373908 v _ZTVN10__cxxabiv117__class_type_infoE
00000000003739e0 v _ZTISt9exception
00000000003739f0 v _ZTISt13bad_exception
0000000000373a08 v _ZTIN10__cxxabiv115__forced_unwindE
0000000000373a18 v _ZTIN10__cxxabiv119__foreign_exceptionE
0000000000373a28 v _ZTVSt9exception
0000000000373a50 v _ZTVSt13bad_exception
0000000000373a78 v _ZTIN10__cxxabiv116__enum_type_infoE
0000000000373a90 v _ZTVN10__cxxabiv116__enum_type_infoE
0000000000373ad0 v _ZTIN10__cxxabiv120__function_type_infoE
0000000000373ae8 v _ZTVN10__cxxabiv120__function_type_infoE
0000000000373b28 v _ZTIN10__cxxabiv123__fundamental_type_infoE
0000000000373b40 v _ZTVN10__cxxabiv123__fundamental_type_infoE
0000000000373b80 v _ZTIPKg
0000000000373ba0 v _ZTIPg
0000000000373bc0 v _ZTIg
0000000000373bd0 v _ZTIPKo
0000000000373bf0 v _ZTIPo
0000000000373c10 v _ZTIo
0000000000373c20 v _ZTIPKn
0000000000373c40 v _ZTIPn
0000000000373c60 v _ZTIn
0000000000373c70 v _ZTIPKDn
0000000000373c90 v _ZTIPDn
0000000000373cb0 v _ZTIDn
0000000000373cc0 v _ZTIPKDe
0000000000373ce0 v _ZTIPDe
0000000000373d00 v _ZTIDe
0000000000373d10 v _ZTIPKDd
0000000000373d30 v _ZTIPDd
0000000000373d50 v _ZTIDd
0000000000373d60 v _ZTIPKDf
0000000000373d80 v _ZTIPDf
0000000000373da0 v _ZTIDf
0000000000373db0 v _ZTIPKe
0000000000373dd0 v _ZTIPe
0000000000373df0 v _ZTIe
0000000000373e00 v _ZTIPKd
0000000000373e20 v _ZTIPd
0000000000373e40 v _ZTId
0000000000373e50 v _ZTIPKf
0000000000373e70 v _ZTIPf
0000000000373e90 v _ZTIf
0000000000373ea0 v _ZTIPKy
0000000000373ec0 v _ZTIPy
0000000000373ee0 v _ZTIy
0000000000373ef0 v _ZTIPKx
0000000000373f10 v _ZTIPx
0000000000373f30 v _ZTIx
0000000000373f40 v _ZTIPKm
0000000000373f60 v _ZTIPm
0000000000373f80 v _ZTIm
0000000000373f90 v _ZTIPKl
0000000000373fb0 v _ZTIPl
0000000000373fd0 v _ZTIl
0000000000373fe0 v _ZTIPKj
0000000000374000 v _ZTIPj
0000000000374020 v _ZTIj
0000000000374030 v _ZTIPKi
0000000000374050 v _ZTIPi
0000000000374070 v _ZTIi
0000000000374080 v _ZTIPKt
00000000003740a0 v _ZTIPt
00000000003740c0 v _ZTIt
00000000003740d0 v _ZTIPKs
00000000003740f0 v _ZTIPs
0000000000374110 v _ZTIs
0000000000374120 v _ZTIPKh
0000000000374140 v _ZTIPh
0000000000374160 v _ZTIh
0000000000374170 v _ZTIPKa
0000000000374190 v _ZTIPa
00000000003741b0 v _ZTIa
00000000003741c0 v _ZTIPKc
00000000003741e0 v _ZTIPc
0000000000374200 v _ZTIc
0000000000374210 v _ZTIPKDi
0000000000374230 v _ZTIPDi
0000000000374250 v _ZTIDi
0000000000374260 v _ZTIPKDs
0000000000374280 v _ZTIPDs
00000000003742a0 v _ZTIDs
00000000003742b0 v _ZTIPKw
00000000003742d0 v _ZTIPw
00000000003742f0 v _ZTIw
0000000000374300 v _ZTIPKb
0000000000374320 v _ZTIPb
0000000000374340 v _ZTIb
0000000000374350 v _ZTIPKv
0000000000374370 v _ZTIPv
0000000000374390 v _ZTIv
00000000003743e0 v _ZTISt16nested_exception
00000000003743f0 v _ZTVSt16nested_exception
0000000000374410 v _ZTIN10__cxxabiv117__pbase_type_infoE
0000000000374428 v _ZTVN10__cxxabiv117__pbase_type_infoE
0000000000374470 v _ZTIN10__cxxabiv129__pointer_to_member_type_infoE
0000000000374488 v _ZTVN10__cxxabiv129__pointer_to_member_type_infoE
00000000003744d0 v _ZTIN10__cxxabiv119__pointer_type_infoE
00000000003744e8 v _ZTVN10__cxxabiv119__pointer_type_infoE
0000000000374530 v _ZTIN10__cxxabiv120__si_class_type_infoE
0000000000374548 v _ZTVN10__cxxabiv120__si_class_type_infoE
00000000003745a0 v _ZTISt9type_info
00000000003745b0 v _ZTVSt9type_info
00000000003745f0 v _ZTIN10__cxxabiv121__vmi_class_type_infoE
0000000000374608 v _ZTVN10__cxxabiv121__vmi_class_type_infoE
0000000000374660 v _ZTISt7codecvtIcc11__mbstate_tE
0000000000374678 v _ZTISt7codecvtIwc11__mbstate_tE
0000000000374690 v _ZTVSt7codecvtIcc11__mbstate_tE
00000000003746e8 v _ZTVSt7codecvtIwc11__mbstate_tE
0000000000374740 v _ZTINSt8ios_base7failureE
0000000000374758 v _ZTVNSt8ios_base7failureE
0000000000374780 v _ZTINSt6locale5facetE
0000000000374790 v _ZTVNSt6locale5facetE
0000000000374a78 v _ZTISt11logic_error
0000000000374a90 v _ZTISt12domain_error
0000000000374aa8 v _ZTISt16invalid_argument
0000000000374ac0 v _ZTISt12length_error
0000000000374ad8 v _ZTISt12out_of_range
0000000000374af0 v _ZTISt13runtime_error
0000000000374b08 v _ZTISt11range_error
0000000000374b20 v _ZTISt14overflow_error
0000000000374b38 v _ZTISt15underflow_error
0000000000374b50 v _ZTVSt11logic_error
0000000000374b78 v _ZTVSt12domain_error
0000000000374ba0 v _ZTVSt16invalid_argument
0000000000374bc8 v _ZTVSt12length_error
0000000000374bf0 v _ZTVSt12out_of_range
0000000000374c18 v _ZTVSt13runtime_error
0000000000374c40 v _ZTVSt11range_error
0000000000374c68 v _ZTVSt14overflow_error
0000000000374c90 v _ZTVSt15underflow_error
0000000000374cb8 v _ZTISt12strstreambuf
0000000000374cd0 v _ZTISt10istrstream
0000000000374ce8 v _ZTISt10ostrstream
0000000000374d00 v _ZTISt9strstream
0000000000374d18 v _ZTVSt12strstreambuf
0000000000374de8 v _ZTTSt10istrstream
0000000000374e08 v _ZTVSt10istrstream
0000000000374ea8 v _ZTTSt10ostrstream
0000000000374ec8 v _ZTVSt10ostrstream
0000000000375030 v _ZTTSt9strstream
0000000000375080 v _ZTVSt9strstream
0000000000375248 v _ZTISt12codecvt_base
0000000000375290 v _ZTISt7codecvtIDsc11__mbstate_tE
00000000003752e0 v _ZTISt7codecvtIDic11__mbstate_tE
00000000003752f8 v _ZTISt19__codecvt_utf8_baseIDsE
0000000000375310 v _ZTISt20__codecvt_utf16_baseIDsE
0000000000375328 v _ZTISt25__codecvt_utf8_utf16_baseIDsE
0000000000375340 v _ZTISt19__codecvt_utf8_baseIDiE
0000000000375358 v _ZTISt20__codecvt_utf16_baseIDiE
0000000000375370 v _ZTISt25__codecvt_utf8_utf16_baseIDiE
0000000000375388 v _ZTISt19__codecvt_utf8_baseIwE
00000000003753a0 v _ZTISt20__codecvt_utf16_baseIwE
00000000003753b8 v _ZTISt25__codecvt_utf8_utf16_baseIwE
0000000000375480 v _ZTVSt7codecvtIDsc11__mbstate_tE
00000000003754d8 v _ZTVSt7codecvtIDic11__mbstate_tE
0000000000375530 v _ZTVSt19__codecvt_utf8_baseIDsE
0000000000375588 v _ZTVSt19__codecvt_utf8_baseIDiE
00000000003755e0 v _ZTVSt19__codecvt_utf8_baseIwE
0000000000375638 v _ZTVSt20__codecvt_utf16_baseIDsE
0000000000375690 v _ZTVSt20__codecvt_utf16_baseIDiE
00000000003756e8 v _ZTVSt20__codecvt_utf16_baseIwE
0000000000375740 v _ZTVSt25__codecvt_utf8_utf16_baseIDsE
0000000000375798 v _ZTVSt25__codecvt_utf8_utf16_baseIDiE
00000000003757f0 v _ZTVSt25__codecvt_utf8_utf16_baseIwE
0000000000375848 v _ZTISt10ctype_base
0000000000375858 v _ZTISt5ctypeIcE
0000000000375890 v _ZTISt5ctypeIwE
00000000003758a8 v _ZTISt12ctype_bynameIwE
00000000003758c0 v _ZTVSt5ctypeIcE
0000000000375920 v _ZTVSt5ctypeIwE
00000000003759a0 v _ZTVSt12ctype_bynameIwE
0000000000375a20 v _ZTISt17bad_function_call
0000000000375a38 v _ZTVSt17bad_function_call
0000000000375a60 v _ZTISt12future_error
0000000000375a78 v _ZTINSt13__future_base12_Result_baseE
0000000000375af0 v _ZTVSt12future_error
0000000000375b18 v _ZTVNSt13__future_base12_Result_baseE
0000000000375b40 v _ZTISt8ios_base
0000000000375b50 v _ZTVSt8ios_base
0000000000375b70 v _ZTISt11regex_error
0000000000375b88 v _ZTVSt11regex_error
0000000000375bb0 v _ZTISt12bad_weak_ptr
0000000000375bc8 v _ZTVSt12bad_weak_ptr
0000000000375bf0 v _ZTINSt3_V214error_categoryE
0000000000375c00 v _ZTISt12system_error
0000000000375ce8 v _ZTVNSt3_V214error_categoryE
0000000000375d38 v _ZTVSt12system_error
0000000000376390 v _ZTINSt8ios_base7failureB5cxx11E
0000000000376410 v _ZTVNSt8ios_base7failureB5cxx11E
0000000000376b08 v _ZTISt12ctype_bynameIcE
0000000000376b20 v _ZTVSt12ctype_bynameIcE
0000000000376b80 v _ZTISt15basic_stringbufIcSt11char_traitsIcESaIcEE
0000000000376b98 v _ZTISt19basic_istringstreamIcSt11char_traitsIcESaIcEE
0000000000376bb0 v _ZTISt19basic_ostringstreamIcSt11char_traitsIcESaIcEE
0000000000376bc8 v _ZTISt18basic_stringstreamIcSt11char_traitsIcESaIcEE
0000000000376be0 v _ZTISt15basic_stringbufIwSt11char_traitsIwESaIwEE
0000000000376bf8 v _ZTISt19basic_istringstreamIwSt11char_traitsIwESaIwEE
0000000000376c10 v _ZTISt19basic_ostringstreamIwSt11char_traitsIwESaIwEE
0000000000376c28 v _ZTISt18basic_stringstreamIwSt11char_traitsIwESaIwEE
0000000000376c40 v _ZTVSt15basic_stringbufIcSt11char_traitsIcESaIcEE
0000000000376d10 v _ZTTSt19basic_istringstreamIcSt11char_traitsIcESaIcEE
0000000000376d30 v _ZTVSt19basic_istringstreamIcSt11char_traitsIcESaIcEE
0000000000376dd0 v _ZTTSt19basic_ostringstreamIcSt11char_traitsIcESaIcEE
0000000000376df0 v _ZTVSt19basic_ostringstreamIcSt11char_traitsIcESaIcEE
0000000000376f58 v _ZTTSt18basic_stringstreamIcSt11char_traitsIcESaIcEE
0000000000376fa8 v _ZTVSt18basic_stringstreamIcSt11char_traitsIcESaIcEE
0000000000377020 v _ZTVSt15basic_stringbufIwSt11char_traitsIwESaIwEE
00000000003770f0 v _ZTTSt19basic_istringstreamIwSt11char_traitsIwESaIwEE
0000000000377110 v _ZTVSt19basic_istringstreamIwSt11char_traitsIwESaIwEE
00000000003771b0 v _ZTTSt19basic_ostringstreamIwSt11char_traitsIwESaIwEE
00000000003771d0 v _ZTVSt19basic_ostringstreamIwSt11char_traitsIwESaIwEE
0000000000377338 v _ZTTSt18basic_stringstreamIwSt11char_traitsIwESaIwEE
0000000000377388 v _ZTVSt18basic_stringstreamIwSt11char_traitsIwESaIwEE
0000000000377400 v _ZTISt10money_base
0000000000377410 v _ZTISt13messages_base
0000000000377420 v _ZTISt9time_base
0000000000377430 v _ZTINSt7__cxx117collateIcEE
0000000000377448 v _ZTINSt7__cxx1114collate_bynameIcEE
0000000000377460 v _ZTINSt7__cxx118numpunctIcEE
0000000000377478 v _ZTINSt7__cxx1115numpunct_bynameIcEE
0000000000377490 v _ZTINSt7__cxx1110moneypunctIcLb1EEE
00000000003774c8 v _ZTINSt7__cxx1110moneypunctIcLb0EEE
0000000000377500 v _ZTINSt7__cxx118messagesIcEE
0000000000377538 v _ZTINSt7__cxx1117moneypunct_bynameIcLb0EEE
0000000000377550 v _ZTINSt7__cxx1117moneypunct_bynameIcLb1EEE
0000000000377568 v _ZTINSt7__cxx119money_getIcSt19istreambuf_iteratorIcSt11char_traitsIcEEEE
0000000000377580 v _ZTINSt7__cxx119money_putIcSt19ostreambuf_iteratorIcSt11char_traitsIcEEEE
0000000000377598 v _ZTINSt7__cxx118time_getIcSt19istreambuf_iteratorIcSt11char_traitsIcEEEE
00000000003775d0 v _ZTINSt7__cxx1115time_get_bynameIcSt19istreambuf_iteratorIcSt11char_traitsIcEEEE
00000000003775e8 v _ZTINSt7__cxx1115messages_bynameIcEE
0000000000377600 v _ZTVNSt7__cxx117collateIcEE
0000000000377638 v _ZTVNSt7__cxx1114collate_bynameIcEE
0000000000377670 v _ZTVNSt7__cxx118numpunctIcEE
00000000003776b8 v _ZTVNSt7__cxx1115numpunct_bynameIcEE
0000000000377700 v _ZTVNSt7__cxx1110moneypunctIcLb1EEE
0000000000377768 v _ZTVNSt7__cxx1110moneypunctIcLb0EEE
00000000003777d0 v _ZTVNSt7__cxx118messagesIcEE
0000000000377808 v _ZTVNSt7__cxx1117moneypunct_bynameIcLb0EEE
0000000000377870 v _ZTVNSt7__cxx1117moneypunct_bynameIcLb1EEE
00000000003778d8 v _ZTVNSt7__cxx119money_getIcSt19istreambuf_iteratorIcSt11char_traitsIcEEEE
0000000000377908 v _ZTVNSt7__cxx119money_putIcSt19ostreambuf_iteratorIcSt11char_traitsIcEEEE
0000000000377938 v _ZTVNSt7__cxx118time_getIcSt19istreambuf_iteratorIcSt11char_traitsIcEEEE
0000000000377990 v _ZTVNSt7__cxx1115time_get_bynameIcSt19istreambuf_iteratorIcSt11char_traitsIcEEEE
00000000003779e8 v _ZTVNSt7__cxx1115messages_bynameIcEE
0000000000377a20 v _ZTINSt7__cxx117collateIwEE
0000000000377a38 v _ZTINSt7__cxx1114collate_bynameIwEE
0000000000377a50 v _ZTINSt7__cxx118numpunctIwEE
0000000000377a68 v _ZTINSt7__cxx1115numpunct_bynameIwEE
0000000000377a80 v _ZTINSt7__cxx1110moneypunctIwLb1EEE
0000000000377ab8 v _ZTINSt7__cxx1110moneypunctIwLb0EEE
0000000000377af0 v _ZTINSt7__cxx118messagesIwEE
0000000000377b28 v _ZTINSt7__cxx1117moneypunct_bynameIwLb0EEE
0000000000377b40 v _ZTINSt7__cxx1117moneypunct_bynameIwLb1EEE
0000000000377b58 v _ZTINSt7__cxx119money_getIwSt19istreambuf_iteratorIwSt11char_traitsIwEEEE
0000000000377b70 v _ZTINSt7__cxx119money_putIwSt19ostreambuf_iteratorIwSt11char_traitsIwEEEE
0000000000377b88 v _ZTINSt7__cxx118time_getIwSt19istreambuf_iteratorIwSt11char_traitsIwEEEE
0000000000377bc0 v _ZTINSt7__cxx1115time_get_bynameIwSt19istreambuf_iteratorIwSt11char_traitsIwEEEE
0000000000377bd8 v _ZTINSt7__cxx1115messages_bynameIwEE
0000000000377bf0 v _ZTVNSt7__cxx117collateIwEE
0000000000377c28 v _ZTVNSt7__cxx1114collate_bynameIwEE
0000000000377c60 v _ZTVNSt7__cxx118numpunctIwEE
0000000000377ca8 v _ZTVNSt7__cxx1115numpunct_bynameIwEE
0000000000377cf0 v _ZTVNSt7__cxx1110moneypunctIwLb1EEE
0000000000377d58 v _ZTVNSt7__cxx1110moneypunctIwLb0EEE
0000000000377dc0 v _ZTVNSt7__cxx118messagesIwEE
0000000000377df8 v _ZTVNSt7__cxx1117moneypunct_bynameIwLb0EEE
0000000000377e60 v _ZTVNSt7__cxx1117moneypunct_bynameIwLb1EEE
0000000000377ec8 v _ZTVNSt7__cxx119money_getIwSt19istreambuf_iteratorIwSt11char_traitsIwEEEE
0000000000377ef8 v _ZTVNSt7__cxx119money_putIwSt19ostreambuf_iteratorIwSt11char_traitsIwEEEE
0000000000377f28 v _ZTVNSt7__cxx118time_getIwSt19istreambuf_iteratorIwSt11char_traitsIwEEEE
0000000000377f80 v _ZTVNSt7__cxx1115time_get_bynameIwSt19istreambuf_iteratorIwSt11char_traitsIwEEEE
0000000000377fd8 v _ZTVNSt7__cxx1115messages_bynameIwEE
0000000000378010 v _ZTIN9__gnu_cxx18stdio_sync_filebufIcSt11char_traitsIcEEE
0000000000378028 v _ZTIN9__gnu_cxx18stdio_sync_filebufIwSt11char_traitsIwEEE
0000000000378040 v _ZTIN9__gnu_cxx13stdio_filebufIcSt11char_traitsIcEEE
0000000000378058 v _ZTIN9__gnu_cxx13stdio_filebufIwSt11char_traitsIwEEE
0000000000378070 v _ZTVN9__gnu_cxx18stdio_sync_filebufIcSt11char_traitsIcEEE
00000000003780f0 v _ZTVN9__gnu_cxx18stdio_sync_filebufIwSt11char_traitsIwEEE
0000000000378270 v _ZTISt13basic_filebufIcSt11char_traitsIcEE
0000000000378288 v _ZTISt14basic_ifstreamIcSt11char_traitsIcEE
00000000003782a0 v _ZTISt14basic_ofstreamIcSt11char_traitsIcEE
00000000003782b8 v _ZTISt13basic_fstreamIcSt11char_traitsIcEE
00000000003782d0 v _ZTISt13basic_filebufIwSt11char_traitsIwEE
00000000003782e8 v _ZTISt14basic_ifstreamIwSt11char_traitsIwEE
0000000000378300 v _ZTISt14basic_ofstreamIwSt11char_traitsIwEE
0000000000378318 v _ZTISt13basic_fstreamIwSt11char_traitsIwEE
0000000000378330 v _ZTVSt13basic_filebufIcSt11char_traitsIcEE
0000000000378400 v _ZTTSt14basic_ifstreamIcSt11char_traitsIcEE
0000000000378420 v _ZTVSt14basic_ifstreamIcSt11char_traitsIcEE
00000000003784c0 v _ZTTSt14basic_ofstreamIcSt11char_traitsIcEE
00000000003784e0 v _ZTVSt14basic_ofstreamIcSt11char_traitsIcEE
0000000000378648 v _ZTTSt13basic_fstreamIcSt11char_traitsIcEE
0000000000378698 v _ZTVSt13basic_fstreamIcSt11char_traitsIcEE
0000000000378710 v _ZTVSt13basic_filebufIwSt11char_traitsIwEE
00000000003787e0 v _ZTTSt14basic_ifstreamIwSt11char_traitsIwEE
0000000000378800 v _ZTVSt14basic_ifstreamIwSt11char_traitsIwEE
00000000003788a0 v _ZTTSt14basic_ofstreamIwSt11char_traitsIwEE
00000000003788c0 v _ZTVSt14basic_ofstreamIwSt11char_traitsIwEE
0000000000378a28 v _ZTTSt13basic_fstreamIwSt11char_traitsIwEE
0000000000378a78 v _ZTVSt13basic_fstreamIwSt11char_traitsIwEE
0000000000378af0 v _ZTISt9basic_iosIcSt11char_traitsIcEE
0000000000378b08 v _ZTISt9basic_iosIwSt11char_traitsIwEE
0000000000378b20 v _ZTVSt9basic_iosIcSt11char_traitsIcEE
0000000000378b40 v _ZTVSt9basic_iosIwSt11char_traitsIwEE
0000000000378b60 v _ZTISd
0000000000378b98 v _ZTISt14basic_iostreamIwSt11char_traitsIwEE
0000000000378c70 v _ZTTSd
0000000000378ca8 v _ZTVSd
0000000000378dc0 v _ZTTSt14basic_iostreamIwSt11char_traitsIwEE
0000000000378df8 v _ZTVSt14basic_iostreamIwSt11char_traitsIwEE
0000000000378e70 v _ZTISi
0000000000378e98 v _ZTISt13basic_istreamIwSt11char_traitsIwEE
0000000000378ec0 v _ZTTSi
0000000000378ed0 v _ZTVSi
0000000000378f20 v _ZTTSt13basic_istreamIwSt11char_traitsIwEE
0000000000378f30 v _ZTVSt13basic_istreamIwSt11char_traitsIwEE
0000000000378f80 v _ZTISt7collateIcE
0000000000378f98 v _ZTISt14collate_bynameIcE
0000000000378fb0 v _ZTISt8numpunctIcE
0000000000378fc8 v _ZTISt15numpunct_bynameIcE
0000000000378fe0 v _ZTISt7num_getIcSt19istreambuf_iteratorIcSt11char_traitsIcEEE
0000000000378ff8 v _ZTISt7num_putIcSt19ostreambuf_iteratorIcSt11char_traitsIcEEE
0000000000379028 v _ZTISt11__timepunctIcE
0000000000379040 v _ZTISt10moneypunctIcLb1EE
0000000000379078 v _ZTISt10moneypunctIcLb0EE
00000000003790b0 v _ZTISt8messagesIcE
00000000003790e8 v _ZTISt23__codecvt_abstract_baseIcc11__mbstate_tE
0000000000379120 v _ZTISt14codecvt_bynameIcc11__mbstate_tE
0000000000379138 v _ZTISt17moneypunct_bynameIcLb0EE
0000000000379150 v _ZTISt17moneypunct_bynameIcLb1EE
0000000000379168 v _ZTISt9money_getIcSt19istreambuf_iteratorIcSt11char_traitsIcEEE
0000000000379180 v _ZTISt9money_putIcSt19ostreambuf_iteratorIcSt11char_traitsIcEEE
0000000000379198 v _ZTISt8time_putIcSt19ostreambuf_iteratorIcSt11char_traitsIcEEE
00000000003791b0 v _ZTISt15time_put_bynameIcSt19ostreambuf_iteratorIcSt11char_traitsIcEEE
00000000003791c8 v _ZTISt8time_getIcSt19istreambuf_iteratorIcSt11char_traitsIcEEE
0000000000379200 v _ZTISt15time_get_bynameIcSt19istreambuf_iteratorIcSt11char_traitsIcEEE
0000000000379218 v _ZTISt15messages_bynameIcE
0000000000379230 v _ZTISt21__ctype_abstract_baseIcE
0000000000379268 v _ZTVSt7collateIcE
00000000003792a0 v _ZTVSt14collate_bynameIcE
00000000003792d8 v _ZTVSt8numpunctIcE
0000000000379320 v _ZTVSt15numpunct_bynameIcE
0000000000379368 v _ZTVSt7num_getIcSt19istreambuf_iteratorIcSt11char_traitsIcEEE
00000000003793e0 v _ZTVSt7num_putIcSt19ostreambuf_iteratorIcSt11char_traitsIcEEE
0000000000379460 v _ZTVSt11__timepunctIcE
0000000000379480 v _ZTVSt10moneypunctIcLb1EE
00000000003794e8 v _ZTVSt10moneypunctIcLb0EE
0000000000379550 v _ZTVSt8messagesIcE
0000000000379588 v _ZTVSt23__codecvt_abstract_baseIcc11__mbstate_tE
00000000003795e0 v _ZTVSt14codecvt_bynameIcc11__mbstate_tE
0000000000379638 v _ZTVSt17moneypunct_bynameIcLb0EE
00000000003796a0 v _ZTVSt17moneypunct_bynameIcLb1EE
0000000000379708 v _ZTVSt9money_getIcSt19istreambuf_iteratorIcSt11char_traitsIcEEE
0000000000379738 v _ZTVSt9money_putIcSt19ostreambuf_iteratorIcSt11char_traitsIcEEE
0000000000379768 v _ZTVSt8time_putIcSt19ostreambuf_iteratorIcSt11char_traitsIcEEE
0000000000379790 v _ZTVSt15time_put_bynameIcSt19ostreambuf_iteratorIcSt11char_traitsIcEEE
00000000003797b8 v _ZTVSt8time_getIcSt19istreambuf_iteratorIcSt11char_traitsIcEEE
0000000000379808 v _ZTVSt15time_get_bynameIcSt19istreambuf_iteratorIcSt11char_traitsIcEEE
0000000000379858 v _ZTVSt15messages_bynameIcE
0000000000379890 v _ZTVSt21__ctype_abstract_baseIcE
0000000000379910 v _ZTISo
0000000000379938 v _ZTISt13basic_ostreamIwSt11char_traitsIwEE
0000000000379960 v _ZTTSo
0000000000379970 v _ZTVSo
00000000003799c0 v _ZTTSt13basic_ostreamIwSt11char_traitsIwEE
00000000003799d0 v _ZTVSt13basic_ostreamIwSt11char_traitsIwEE
0000000000379a20 v _ZTINSt7__cxx1115basic_stringbufIcSt11char_traitsIcESaIcEEE
0000000000379a38 v _ZTINSt7__cxx1119basic_istringstreamIcSt11char_traitsIcESaIcEEE
0000000000379a50 v _ZTINSt7__cxx1119basic_ostringstreamIcSt11char_traitsIcESaIcEEE
0000000000379a68 v _ZTINSt7__cxx1118basic_stringstreamIcSt11char_traitsIcESaIcEEE
0000000000379a80 v _ZTINSt7__cxx1115basic_stringbufIwSt11char_traitsIwESaIwEEE
0000000000379a98 v _ZTINSt7__cxx1119basic_istringstreamIwSt11char_traitsIwESaIwEEE
0000000000379ab0 v _ZTINSt7__cxx1119basic_ostringstreamIwSt11char_traitsIwESaIwEEE
0000000000379ac8 v _ZTINSt7__cxx1118basic_stringstreamIwSt11char_traitsIwESaIwEEE
0000000000379ae0 v _ZTVNSt7__cxx1115basic_stringbufIcSt11char_traitsIcESaIcEEE
0000000000379bb0 v _ZTTNSt7__cxx1119basic_istringstreamIcSt11char_traitsIcESaIcEEE
0000000000379bd0 v _ZTVNSt7__cxx1119basic_istringstreamIcSt11char_traitsIcESaIcEEE
0000000000379c70 v _ZTTNSt7__cxx1119basic_ostringstreamIcSt11char_traitsIcESaIcEEE
0000000000379c90 v _ZTVNSt7__cxx1119basic_ostringstreamIcSt11char_traitsIcESaIcEEE
0000000000379df8 v _ZTTNSt7__cxx1118basic_stringstreamIcSt11char_traitsIcESaIcEEE
0000000000379e48 v _ZTVNSt7__cxx1118basic_stringstreamIcSt11char_traitsIcESaIcEEE
0000000000379ec0 v _ZTVNSt7__cxx1115basic_stringbufIwSt11char_traitsIwESaIwEEE
0000000000379f90 v _ZTTNSt7__cxx1119basic_istringstreamIwSt11char_traitsIwESaIwEEE
0000000000379fb0 v _ZTVNSt7__cxx1119basic_istringstreamIwSt11char_traitsIwESaIwEEE
000000000037a050 v _ZTTNSt7__cxx1119basic_ostringstreamIwSt11char_traitsIwESaIwEEE
000000000037a070 v _ZTVNSt7__cxx1119basic_ostringstreamIwSt11char_traitsIwESaIwEEE
000000000037a1d8 v _ZTTNSt7__cxx1118basic_stringstreamIwSt11char_traitsIwESaIwEEE
000000000037a228 v _ZTVNSt7__cxx1118basic_stringstreamIwSt11char_traitsIwESaIwEEE
000000000037a2a0 v _ZTISt15basic_streambufIcSt11char_traitsIcEE
000000000037a2b0 v _ZTISt15basic_streambufIwSt11char_traitsIwEE
000000000037a2c0 v _ZTVSt15basic_streambufIcSt11char_traitsIcEE
000000000037a340 v _ZTVSt15basic_streambufIwSt11char_traitsIwEE
000000000037a3c0 v _ZTISt7collateIwE
000000000037a3d8 v _ZTISt14collate_bynameIwE
000000000037a3f0 v _ZTISt21__ctype_abstract_baseIwE
000000000037a428 v _ZTISt8numpunctIwE
000000000037a440 v _ZTISt15numpunct_bynameIwE
000000000037a458 v _ZTISt7num_getIwSt19istreambuf_iteratorIwSt11char_traitsIwEEE
000000000037a470 v _ZTISt7num_putIwSt19ostreambuf_iteratorIwSt11char_traitsIwEEE
000000000037a4a0 v _ZTISt11__timepunctIwE
000000000037a4b8 v _ZTISt10moneypunctIwLb1EE
000000000037a4f0 v _ZTISt10moneypunctIwLb0EE
000000000037a528 v _ZTISt8messagesIwE
000000000037a560 v _ZTISt23__codecvt_abstract_baseIwc11__mbstate_tE
000000000037a598 v _ZTISt14codecvt_bynameIwc11__mbstate_tE
000000000037a5b0 v _ZTISt17moneypunct_bynameIwLb0EE
000000000037a5c8 v _ZTISt17moneypunct_bynameIwLb1EE
000000000037a5e0 v _ZTISt9money_getIwSt19istreambuf_iteratorIwSt11char_traitsIwEEE
000000000037a5f8 v _ZTISt9money_putIwSt19ostreambuf_iteratorIwSt11char_traitsIwEEE
000000000037a610 v _ZTISt8time_putIwSt19ostreambuf_iteratorIwSt11char_traitsIwEEE
000000000037a628 v _ZTISt15time_put_bynameIwSt19ostreambuf_iteratorIwSt11char_traitsIwEEE
000000000037a640 v _ZTISt8time_getIwSt19istreambuf_iteratorIwSt11char_traitsIwEEE
000000000037a678 v _ZTISt15time_get_bynameIwSt19istreambuf_iteratorIwSt11char_traitsIwEEE
000000000037a690 v _ZTISt15messages_bynameIwE
000000000037a6a8 v _ZTVSt7collateIwE
000000000037a6e0 v _ZTVSt14collate_bynameIwE
000000000037a718 v _ZTVSt21__ctype_abstract_baseIwE
000000000037a798 v _ZTVSt8numpunctIwE
000000000037a7e0 v _ZTVSt15numpunct_bynameIwE
000000000037a828 v _ZTVSt7num_getIwSt19istreambuf_iteratorIwSt11char_traitsIwEEE
000000000037a8a0 v _ZTVSt7num_putIwSt19ostreambuf_iteratorIwSt11char_traitsIwEEE
000000000037a920 v _ZTVSt11__timepunctIwE
000000000037a940 v _ZTVSt10moneypunctIwLb1EE
000000000037a9a8 v _ZTVSt10moneypunctIwLb0EE
000000000037aa10 v _ZTVSt8messagesIwE
000000000037aa48 v _ZTVSt23__codecvt_abstract_baseIwc11__mbstate_tE
000000000037aaa0 v _ZTVSt14codecvt_bynameIwc11__mbstate_tE
000000000037aaf8 v _ZTVSt17moneypunct_bynameIwLb0EE
000000000037ab60 v _ZTVSt17moneypunct_bynameIwLb1EE
000000000037abc8 v _ZTVSt9money_getIwSt19istreambuf_iteratorIwSt11char_traitsIwEEE
000000000037abf8 v _ZTVSt9money_putIwSt19ostreambuf_iteratorIwSt11char_traitsIwEEE
000000000037ac28 v _ZTVSt8time_putIwSt19ostreambuf_iteratorIwSt11char_traitsIwEEE
000000000037ac50 v _ZTVSt15time_put_bynameIwSt19ostreambuf_iteratorIwSt11char_traitsIwEEE
000000000037ac78 v _ZTVSt8time_getIwSt19istreambuf_iteratorIwSt11char_traitsIwEEE
000000000037acc8 v _ZTVSt15time_get_bynameIwSt19istreambuf_iteratorIwSt11char_traitsIwEEE
000000000037ad18 v _ZTVSt15messages_bynameIwE
000000000037d978 D _ZNSt10__num_base12_S_atoms_outE
000000000037d980 D _ZNSt10__num_base11_S_atoms_inE
000000000037d988 D _ZNSt10money_base8_S_atomsE
000000000037d9a0 D _ZNSt17__timepunct_cacheIwE12_S_timezonesE
000000000037da20 D _ZNSt17__timepunct_cacheIcE12_S_timezonesE
000000000037dce0 D _ZSt10adopt_lock
000000000037dce1 D _ZSt11try_to_lock
000000000037dce2 D _ZSt10defer_lock
000000000037dce8 D _ZSt15future_category
000000000037e030 D _ZNSt7codecvtIwc11__mbstate_tE2idE
000000000037e038 D _ZNSt7codecvtIcc11__mbstate_tE2idE
000000000037e880 D _ZSt5wclog
000000000037e9a0 D _ZSt5wcerr
000000000037eac0 D _ZSt5wcout
000000000037ebe0 D _ZSt4wcin
000000000037ed00 D _ZSt4clog
000000000037ee20 D _ZSt4cerr
000000000037ef40 D _ZSt4cout
000000000037f060 D _ZSt3cin
0000000000380a00 D _ZNSt7codecvtIDic11__mbstate_tE2idE
0000000000380a08 D _ZNSt7codecvtIDsc11__mbstate_tE2idE
0000000000380a28 D _ZNSt5ctypeIwE2idE
0000000000380a30 D _ZNSt5ctypeIcE2idE
0000000000381140 u _ZNSs4_Rep20_S_empty_rep_storageE
0000000000381160 u _ZNSbIwSt11char_traitsIwESaIwEE4_Rep20_S_empty_rep_storageE
0000000000381180 u _ZGVNSt7__cxx117collateIcE2idE
0000000000381188 u _ZGVNSt7__cxx118messagesIcE2idE
0000000000381190 u _ZGVNSt7__cxx118time_getIcSt19istreambuf_iteratorIcSt11char_traitsIcEEE2idE
0000000000381198 u _ZGVNSt7__cxx118numpunctIcE2idE
00000000003811a0 u _ZGVNSt7__cxx119money_putIcSt19ostreambuf_iteratorIcSt11char_traitsIcEEE2idE
00000000003811a8 u _ZGVNSt7__cxx119money_getIcSt19istreambuf_iteratorIcSt11char_traitsIcEEE2idE
00000000003811b0 u _ZGVNSt7__cxx1110moneypunctIcLb1EE2idE
00000000003811b8 u _ZGVNSt7__cxx1110moneypunctIcLb0EE2idE
00000000003811c0 u _ZNSt7__cxx117collateIcE2idE
00000000003811c8 u _ZNSt7__cxx118messagesIcE2idE
00000000003811d0 u _ZNSt7__cxx118time_getIcSt19istreambuf_iteratorIcSt11char_traitsIcEEE2idE
00000000003811d8 u _ZNSt7__cxx118numpunctIcE2idE
00000000003811e0 u _ZNSt7__cxx119money_putIcSt19ostreambuf_iteratorIcSt11char_traitsIcEEE2idE
00000000003811e8 u _ZNSt7__cxx119money_getIcSt19istreambuf_iteratorIcSt11char_traitsIcEEE2idE
00000000003811f0 u _ZNSt7__cxx1110moneypunctIcLb1EE2idE
00000000003811f8 u _ZNSt7__cxx1110moneypunctIcLb0EE2idE
0000000000381200 u _ZGVNSt7__cxx117collateIwE2idE
0000000000381208 u _ZGVNSt7__cxx118messagesIwE2idE
0000000000381210 u _ZGVNSt7__cxx118time_getIwSt19istreambuf_iteratorIwSt11char_traitsIwEEE2idE
0000000000381218 u _ZGVNSt7__cxx118numpunctIwE2idE
0000000000381220 u _ZGVNSt7__cxx119money_putIwSt19ostreambuf_iteratorIwSt11char_traitsIwEEE2idE
0000000000381228 u _ZGVNSt7__cxx119money_getIwSt19istreambuf_iteratorIwSt11char_traitsIwEEE2idE
0000000000381230 u _ZGVNSt7__cxx1110moneypunctIwLb1EE2idE
0000000000381238 u _ZGVNSt7__cxx1110moneypunctIwLb0EE2idE
0000000000381240 u _ZNSt7__cxx117collateIwE2idE
0000000000381248 u _ZNSt7__cxx118messagesIwE2idE
0000000000381250 u _ZNSt7__cxx118time_getIwSt19istreambuf_iteratorIwSt11char_traitsIwEEE2idE
0000000000381258 u _ZNSt7__cxx118numpunctIwE2idE
0000000000381260 u _ZNSt7__cxx119money_putIwSt19ostreambuf_iteratorIwSt11char_traitsIwEEE2idE
0000000000381268 u _ZNSt7__cxx119money_getIwSt19istreambuf_iteratorIwSt11char_traitsIwEEE2idE
0000000000381270 u _ZNSt7__cxx1110moneypunctIwLb1EE2idE
0000000000381278 u _ZNSt7__cxx1110moneypunctIwLb0EE2idE
0000000000381280 u _ZGVNSt7collateIcE2idE
0000000000381288 u _ZGVNSt8messagesIcE2idE
0000000000381290 u _ZGVNSt8time_getIcSt19istreambuf_iteratorIcSt11char_traitsIcEEE2idE
0000000000381298 u _ZGVNSt8time_putIcSt19ostreambuf_iteratorIcSt11char_traitsIcEEE2idE
00000000003812a0 u _ZGVNSt11__timepunctIcE2idE
00000000003812a8 u _ZGVNSt7num_putIcSt19ostreambuf_iteratorIcSt11char_traitsIcEEE2idE
00000000003812b0 u _ZGVNSt7num_getIcSt19istreambuf_iteratorIcSt11char_traitsIcEEE2idE
00000000003812b8 u _ZGVNSt8numpunctIcE2idE
00000000003812c0 u _ZGVNSt9money_putIcSt19ostreambuf_iteratorIcSt11char_traitsIcEEE2idE
00000000003812c8 u _ZGVNSt9money_getIcSt19istreambuf_iteratorIcSt11char_traitsIcEEE2idE
00000000003812d0 u _ZGVNSt10moneypunctIcLb1EE2idE
00000000003812d8 u _ZGVNSt10moneypunctIcLb0EE2idE
00000000003812e0 u _ZNSt7collateIcE2idE
00000000003812e8 u _ZNSt8messagesIcE2idE
00000000003812f0 u _ZNSt8time_getIcSt19istreambuf_iteratorIcSt11char_traitsIcEEE2idE
00000000003812f8 u _ZNSt8time_putIcSt19ostreambuf_iteratorIcSt11char_traitsIcEEE2idE
0000000000381300 u _ZNSt11__timepunctIcE2idE
0000000000381308 u _ZNSt7num_putIcSt19ostreambuf_iteratorIcSt11char_traitsIcEEE2idE
0000000000381310 u _ZNSt7num_getIcSt19istreambuf_iteratorIcSt11char_traitsIcEEE2idE
0000000000381318 u _ZNSt8numpunctIcE2idE
0000000000381320 u _ZNSt9money_putIcSt19ostreambuf_iteratorIcSt11char_traitsIcEEE2idE
0000000000381328 u _ZNSt9money_getIcSt19istreambuf_iteratorIcSt11char_traitsIcEEE2idE
0000000000381330 u _ZNSt10moneypunctIcLb1EE2idE
0000000000381338 u _ZNSt10moneypunctIcLb0EE2idE
0000000000381340 u _ZGVNSt7collateIwE2idE
0000000000381348 u _ZGVNSt8messagesIwE2idE
0000000000381350 u _ZGVNSt8time_getIwSt19istreambuf_iteratorIwSt11char_traitsIwEEE2idE
0000000000381358 u _ZGVNSt8time_putIwSt19ostreambuf_iteratorIwSt11char_traitsIwEEE2idE
0000000000381360 u _ZGVNSt11__timepunctIwE2idE
0000000000381368 u _ZGVNSt7num_putIwSt19ostreambuf_iteratorIwSt11char_traitsIwEEE2idE
0000000000381370 u _ZGVNSt7num_getIwSt19istreambuf_iteratorIwSt11char_traitsIwEEE2idE
0000000000381378 u _ZGVNSt8numpunctIwE2idE
0000000000381380 u _ZGVNSt9money_putIwSt19ostreambuf_iteratorIwSt11char_traitsIwEEE2idE
0000000000381388 u _ZGVNSt9money_getIwSt19istreambuf_iteratorIwSt11char_traitsIwEEE2idE
0000000000381390 u _ZGVNSt10moneypunctIwLb1EE2idE
0000000000381398 u _ZGVNSt10moneypunctIwLb0EE2idE
00000000003813a0 u _ZNSt7collateIwE2idE
00000000003813a8 u _ZNSt8messagesIwE2idE
00000000003813b0 u _ZNSt8time_getIwSt19istreambuf_iteratorIwSt11char_traitsIwEEE2idE
00000000003813b8 u _ZNSt8time_putIwSt19ostreambuf_iteratorIwSt11char_traitsIwEEE2idE
00000000003813c0 u _ZNSt11__timepunctIwE2idE
00000000003813c8 u _ZNSt7num_putIwSt19ostreambuf_iteratorIwSt11char_traitsIwEEE2idE
00000000003813d0 u _ZNSt7num_getIwSt19istreambuf_iteratorIwSt11char_traitsIwEEE2idE
00000000003813d8 u _ZNSt8numpunctIwE2idE
00000000003813e0 u _ZNSt9money_putIwSt19ostreambuf_iteratorIwSt11char_traitsIwEEE2idE
00000000003813e8 u _ZNSt9money_getIwSt19istreambuf_iteratorIwSt11char_traitsIwEEE2idE
00000000003813f0 u _ZNSt10moneypunctIwLb1EE2idE
00000000003813f8 u _ZNSt10moneypunctIwLb0EE2idE
0000000000381400 ? __sym_end
